
main.elf:     file format elf32-bigarm

Disassembly of section .text:

00004000 <_boot>:
    4000:	ea000012 	b	4050 <_mainCRTStartup>
    4004:	ea000062 	b	4194 <und_handler>
    4008:	ea000055 	b	4164 <swi_handler>
    400c:	ea000048 	b	4134 <iab_handler>
    4010:	ea000047 	b	4134 <iab_handler>
    4014:	e1a00000 	nop			(mov r0,r0)
    4018:	e51ffff0 	ldr	pc, [pc, #-4080]	; 3030 <IRQ_BIT+0x2fb0>
    401c:	e51ffff0 	ldr	pc, [pc, #-4080]	; 3034 <IRQ_BIT+0x2fb4>

00004020 <_undf>:
    4020:	00004038 	andeq	r4, r0, r8, lsr r0

00004024 <_swi>:
    4024:	0000403c 	andeq	r4, r0, ip, lsr r0

00004028 <_pabt>:
    4028:	00004040 	andeq	r4, r0, r0, asr #32

0000402c <_dabt>:
    402c:	00004044 	andeq	r4, r0, r4, asr #32

00004030 <_irq>:
    4030:	00004048 	andeq	r4, r0, r8, asr #32

00004034 <_fiq>:
    4034:	0000404c 	andeq	r4, r0, ip, asr #32

00004038 <__undf>:
    4038:	eafffffe 	b	4038 <__undf>

0000403c <__swi>:
    403c:	eafffffe 	b	403c <__swi>

00004040 <__pabt>:
    4040:	eafffffe 	b	4040 <__pabt>

00004044 <__dabt>:
    4044:	eafffffe 	b	4044 <__dabt>

00004048 <__irq>:
    4048:	eafffffe 	b	4048 <__irq>

0000404c <__fiq>:
    404c:	eafffffe 	b	404c <__fiq>

00004050 <_mainCRTStartup>:
    4050:	e59f0228 	ldr	r0, [pc, #552]	; 4280 <.text+0x280>
    4054:	e10f1000 	mrs	r1, CPSR
    4058:	e3c1107f 	bic	r1, r1, #127	; 0x7f
    405c:	e38110db 	orr	r1, r1, #219	; 0xdb
    4060:	e129f001 	msr	CPSR_fc, r1
    4064:	e1a0d000 	mov	sp, r0
    4068:	e2400004 	sub	r0, r0, #4	; 0x4
    406c:	e10f1000 	mrs	r1, CPSR
    4070:	e3c1107f 	bic	r1, r1, #127	; 0x7f
    4074:	e38110d7 	orr	r1, r1, #215	; 0xd7
    4078:	e129f001 	msr	CPSR_fc, r1
    407c:	e1a0d000 	mov	sp, r0
    4080:	e2400004 	sub	r0, r0, #4	; 0x4
    4084:	e10f1000 	mrs	r1, CPSR
    4088:	e3c1107f 	bic	r1, r1, #127	; 0x7f
    408c:	e38110d1 	orr	r1, r1, #209	; 0xd1
    4090:	e129f001 	msr	CPSR_fc, r1
    4094:	e1a0d000 	mov	sp, r0
    4098:	e2400004 	sub	r0, r0, #4	; 0x4
    409c:	e10f1000 	mrs	r1, CPSR
    40a0:	e3c1107f 	bic	r1, r1, #127	; 0x7f
    40a4:	e38110d2 	orr	r1, r1, #210	; 0xd2
    40a8:	e129f001 	msr	CPSR_fc, r1
    40ac:	e1a0d000 	mov	sp, r0
    40b0:	e2400080 	sub	r0, r0, #128	; 0x80
    40b4:	e10f1000 	mrs	r1, CPSR
    40b8:	e3c1107f 	bic	r1, r1, #127	; 0x7f
    40bc:	e38110d3 	orr	r1, r1, #211	; 0xd3
    40c0:	e129f001 	msr	CPSR_fc, r1
    40c4:	e1a0d000 	mov	sp, r0
    40c8:	e2400004 	sub	r0, r0, #4	; 0x4
    40cc:	e10f1000 	mrs	r1, CPSR
    40d0:	e3c1107f 	bic	r1, r1, #127	; 0x7f
    40d4:	e38110df 	orr	r1, r1, #223	; 0xdf
    40d8:	e129f001 	msr	CPSR_fc, r1
    40dc:	e1a0d000 	mov	sp, r0
    40e0:	e3a00000 	mov	r0, #0	; 0x0
    40e4:	e1a01000 	mov	r1, r0
    40e8:	e1a02000 	mov	r2, r0
    40ec:	e1a0b000 	mov	fp, r0
    40f0:	e1a07000 	mov	r7, r0
    40f4:	e59fa188 	ldr	sl, [pc, #392]	; 4284 <.text+0x284>
    40f8:	e1a0e00f 	mov	lr, pc
    40fc:	e12fff1a 	bx	sl

00004100 <_reset>:
    4100:	eafffffe 	b	4100 <_reset>

00004104 <dab_handler>:
    4104:	e1a0d00e 	mov	sp, lr
    4108:	e3a04010 	mov	r4, #16	; 0x10
    410c:	ee0d4f1d 	mcr	15, 0, r4, cr13, cr13, {0}
    4110:	e3a0403c 	mov	r4, #60	; 0x3c
    4114:	eb000051 	bl	4260 <uart0_send_byte>
    4118:	e3a04044 	mov	r4, #68	; 0x44
    411c:	eb00004f 	bl	4260 <uart0_send_byte>
    4120:	e3a04041 	mov	r4, #65	; 0x41
    4124:	eb00004d 	bl	4260 <uart0_send_byte>
    4128:	e3a04042 	mov	r4, #66	; 0x42
    412c:	eb00004b 	bl	4260 <uart0_send_byte>
    4130:	ea000022 	b	41c0 <isr_handler>

00004134 <iab_handler>:
    4134:	e1a0d00e 	mov	sp, lr
    4138:	e3a04020 	mov	r4, #32	; 0x20
    413c:	ee0d4f1d 	mcr	15, 0, r4, cr13, cr13, {0}
    4140:	e3a0403c 	mov	r4, #60	; 0x3c
    4144:	eb000045 	bl	4260 <uart0_send_byte>
    4148:	e3a04049 	mov	r4, #73	; 0x49
    414c:	eb000043 	bl	4260 <uart0_send_byte>
    4150:	e3a04041 	mov	r4, #65	; 0x41
    4154:	eb000041 	bl	4260 <uart0_send_byte>
    4158:	e3a04042 	mov	r4, #66	; 0x42
    415c:	eb00003f 	bl	4260 <uart0_send_byte>
    4160:	ea000016 	b	41c0 <isr_handler>

00004164 <swi_handler>:
    4164:	e1a0d00e 	mov	sp, lr
    4168:	e3a04040 	mov	r4, #64	; 0x40
    416c:	ee0d4f1d 	mcr	15, 0, r4, cr13, cr13, {0}
    4170:	e3a0403c 	mov	r4, #60	; 0x3c
    4174:	eb000039 	bl	4260 <uart0_send_byte>
    4178:	e3a04053 	mov	r4, #83	; 0x53
    417c:	eb000037 	bl	4260 <uart0_send_byte>
    4180:	e3a04057 	mov	r4, #87	; 0x57
    4184:	eb000035 	bl	4260 <uart0_send_byte>
    4188:	e3a04049 	mov	r4, #73	; 0x49
    418c:	eb000033 	bl	4260 <uart0_send_byte>
    4190:	ea00000a 	b	41c0 <isr_handler>

00004194 <und_handler>:
    4194:	e1a0d00e 	mov	sp, lr
    4198:	e3a04080 	mov	r4, #128	; 0x80
    419c:	ee0d4f1d 	mcr	15, 0, r4, cr13, cr13, {0}
    41a0:	e3a0403c 	mov	r4, #60	; 0x3c
    41a4:	eb00002d 	bl	4260 <uart0_send_byte>
    41a8:	e3a04055 	mov	r4, #85	; 0x55
    41ac:	eb00002b 	bl	4260 <uart0_send_byte>
    41b0:	e3a0404e 	mov	r4, #78	; 0x4e
    41b4:	eb000029 	bl	4260 <uart0_send_byte>
    41b8:	e3a04044 	mov	r4, #68	; 0x44
    41bc:	eb000027 	bl	4260 <uart0_send_byte>

000041c0 <isr_handler>:
    41c0:	e3a0402d 	mov	r4, #45	; 0x2d
    41c4:	eb000025 	bl	4260 <uart0_send_byte>
    41c8:	e3a04049 	mov	r4, #73	; 0x49
    41cc:	eb000023 	bl	4260 <uart0_send_byte>
    41d0:	e3a0404e 	mov	r4, #78	; 0x4e
    41d4:	eb000021 	bl	4260 <uart0_send_byte>
    41d8:	e3a04054 	mov	r4, #84	; 0x54
    41dc:	eb00001f 	bl	4260 <uart0_send_byte>
    41e0:	e3a04020 	mov	r4, #32	; 0x20
    41e4:	eb00001d 	bl	4260 <uart0_send_byte>
    41e8:	e3a04040 	mov	r4, #64	; 0x40
    41ec:	eb00001b 	bl	4260 <uart0_send_byte>
    41f0:	e24d7004 	sub	r7, sp, #4	; 0x4
    41f4:	eb00000a 	bl	4224 <uart0_print_hex>
    41f8:	e3a04020 	mov	r4, #32	; 0x20
    41fc:	eb000017 	bl	4260 <uart0_send_byte>
    4200:	e3a0405b 	mov	r4, #91	; 0x5b
    4204:	eb000015 	bl	4260 <uart0_send_byte>
    4208:	ee197f19 	mrc	15, 0, r7, cr9, cr9, {0}
    420c:	eb000004 	bl	4224 <uart0_print_hex>
    4210:	e3a0405d 	mov	r4, #93	; 0x5d
    4214:	eb000011 	bl	4260 <uart0_send_byte>
    4218:	e3a0403e 	mov	r4, #62	; 0x3e
    421c:	eb00000f 	bl	4260 <uart0_send_byte>
    4220:	eafffffe 	b	4220 <isr_handler+0x60>

00004224 <uart0_print_hex>:
    4224:	e1a0900e 	mov	r9, lr
    4228:	e3a08020 	mov	r8, #32	; 0x20

0000422c <uart0_print_hex_loop>:
    422c:	e3580000 	cmp	r8, #0	; 0x0
    4230:	01a0f009 	moveq	pc, r9
    4234:	e2488004 	sub	r8, r8, #4	; 0x4
    4238:	e1a06837 	mov	r6, r7, lsr r8
    423c:	e206600f 	and	r6, r6, #15	; 0xf
    4240:	e3560009 	cmp	r6, #9	; 0x9
    4244:	ca000001 	bgt	4250 <adapt_char>
    4248:	e2864030 	add	r4, r6, #48	; 0x30
    424c:	ea000001 	b	4258 <uart0_print_hex_char>

00004250 <adapt_char>:
    4250:	e246600a 	sub	r6, r6, #10	; 0xa
    4254:	e2864041 	add	r4, r6, #65	; 0x41

00004258 <uart0_print_hex_char>:
    4258:	eb000000 	bl	4260 <uart0_send_byte>
    425c:	eafffff2 	b	422c <uart0_print_hex_loop>

00004260 <uart0_send_byte>:
    4260:	e59f0020 	ldr	r0, [pc, #32]	; 4288 <.text+0x288>
    4264:	e5900000 	ldr	r0, [r0]
    4268:	e2000001 	and	r0, r0, #1	; 0x1
    426c:	e3500000 	cmp	r0, #0	; 0x0
    4270:	0afffffa 	beq	4260 <uart0_send_byte>
    4274:	e59f0010 	ldr	r0, [pc, #16]	; 428c <.text+0x28c>
    4278:	e5804000 	str	r4, [r0]
    427c:	e1a0f00e 	mov	pc, lr
    4280:	00008f00 	andeq	r8, r0, r0, lsl #30
    4284:	00004ad0 	ldreqd	r4, [r0], -r0
    4288:	ffff001c 	undefined instruction 0xffff001c
    428c:	ffff0018 	undefined instruction 0xffff0018

00004290 <io_read_gpio0_pin>:
    4290:	e3e03a0f 	mvn	r3, #61440	; 0xf000
    4294:	e5131ffb 	ldr	r1, [r3, #-4091]
    4298:	e20020ff 	and	r2, r0, #255	; 0xff
    429c:	e3a00001 	mov	r0, #1	; 0x1
    42a0:	e0010210 	and	r0, r1, r0, lsl r2
    42a4:	e12fff1e 	bx	lr

000042a8 <io_read_gpio0_port>:
    42a8:	e3e03a0f 	mvn	r3, #61440	; 0xf000
    42ac:	e5130ffb 	ldr	r0, [r3, #-4091]
    42b0:	e12fff1e 	bx	lr

000042b4 <io_set_gpio0_pin>:
    42b4:	e3e01a0f 	mvn	r1, #61440	; 0xf000
    42b8:	e5113fff 	ldr	r3, [r1, #-4095]
    42bc:	e20000ff 	and	r0, r0, #255	; 0xff
    42c0:	e3a02001 	mov	r2, #1	; 0x1
    42c4:	e1833012 	orr	r3, r3, r2, lsl r0
    42c8:	e5013fff 	str	r3, [r1, #-4095]
    42cc:	e12fff1e 	bx	lr

000042d0 <io_clr_gpio0_pin>:
    42d0:	e20000ff 	and	r0, r0, #255	; 0xff
    42d4:	e3a02001 	mov	r2, #1	; 0x1
    42d8:	e1a02012 	mov	r2, r2, lsl r0
    42dc:	e3e01a0f 	mvn	r1, #61440	; 0xf000
    42e0:	e5113fff 	ldr	r3, [r1, #-4095]
    42e4:	e1e02002 	mvn	r2, r2
    42e8:	e0033002 	and	r3, r3, r2
    42ec:	e5013fff 	str	r3, [r1, #-4095]
    42f0:	e12fff1e 	bx	lr

000042f4 <io_toggle_gpio0_pin>:
    42f4:	e3e01a0f 	mvn	r1, #61440	; 0xf000
    42f8:	e5113fff 	ldr	r3, [r1, #-4095]
    42fc:	e20000ff 	and	r0, r0, #255	; 0xff
    4300:	e3a02001 	mov	r2, #1	; 0x1
    4304:	e0233012 	eor	r3, r3, r2, lsl r0
    4308:	e5013fff 	str	r3, [r1, #-4095]
    430c:	e12fff1e 	bx	lr

00004310 <io_set_gpio0_port>:
    4310:	e3e03a0f 	mvn	r3, #61440	; 0xf000
    4314:	e5030fff 	str	r0, [r3, #-4095]
    4318:	e12fff1e 	bx	lr

0000431c <io_set_pwm>:
    431c:	e20000ff 	and	r0, r0, #255	; 0xff
    4320:	e3500007 	cmp	r0, #7	; 0x7
    4324:	e92d4010 	stmdb	sp!, {r4, lr}
    4328:	e3a0c000 	mov	ip, #0	; 0x0
    432c:	e3e0e0ff 	mvn	lr, #255	; 0xff
    4330:	e20110ff 	and	r1, r1, #255	; 0xff
    4334:	8a000011 	bhi	4380 <io_set_pwm+0x64>
    4338:	e2403004 	sub	r3, r0, #4	; 0x4
    433c:	e20330ff 	and	r3, r3, #255	; 0xff
    4340:	e3500003 	cmp	r0, #3	; 0x3
    4344:	e1a0e183 	mov	lr, r3, lsl #3
    4348:	e3e04a0f 	mvn	r4, #61440	; 0xf000
    434c:	e1a0c180 	mov	ip, r0, lsl #3
    4350:	9a000007 	bls	4374 <io_set_pwm+0x58>
    4354:	e3a030ff 	mov	r3, #255	; 0xff
    4358:	e1a03e13 	mov	r3, r3, lsl lr
    435c:	e5142f8b 	ldr	r2, [r4, #-3979]
    4360:	e1e03003 	mvn	r3, r3
    4364:	e0022003 	and	r2, r2, r3
    4368:	e1822e11 	orr	r2, r2, r1, lsl lr
    436c:	e5042f8b 	str	r2, [r4, #-3979]
    4370:	e8bd8010 	ldmia	sp!, {r4, pc}
    4374:	e3a030ff 	mov	r3, #255	; 0xff
    4378:	e1a03c13 	mov	r3, r3, lsl ip
    437c:	e1e0e003 	mvn	lr, r3
    4380:	e3e02a0f 	mvn	r2, #61440	; 0xf000
    4384:	e5123f8f 	ldr	r3, [r2, #-3983]
    4388:	e003300e 	and	r3, r3, lr
    438c:	e1833c11 	orr	r3, r3, r1, lsl ip
    4390:	e5023f8f 	str	r3, [r2, #-3983]
    4394:	e8bd8010 	ldmia	sp!, {r4, pc}

00004398 <io_get_pwm>:
    4398:	e20000ff 	and	r0, r0, #255	; 0xff
    439c:	e3500007 	cmp	r0, #7	; 0x7
    43a0:	e3a02000 	mov	r2, #0	; 0x0
    43a4:	8a00000a 	bhi	43d4 <io_get_pwm+0x3c>
    43a8:	e2403004 	sub	r3, r0, #4	; 0x4
    43ac:	e3500003 	cmp	r0, #3	; 0x3
    43b0:	e20320ff 	and	r2, r3, #255	; 0xff
    43b4:	9a000005 	bls	43d0 <io_get_pwm+0x38>
    43b8:	e3e03a0f 	mvn	r3, #61440	; 0xf000
    43bc:	e5130f8b 	ldr	r0, [r3, #-3979]
    43c0:	e1a02182 	mov	r2, r2, lsl #3
    43c4:	e1a00230 	mov	r0, r0, lsr r2
    43c8:	e20000ff 	and	r0, r0, #255	; 0xff
    43cc:	e12fff1e 	bx	lr
    43d0:	e1a02180 	mov	r2, r0, lsl #3
    43d4:	e3e03a0f 	mvn	r3, #61440	; 0xf000
    43d8:	e5130f8f 	ldr	r0, [r3, #-3983]
    43dc:	e1a00230 	mov	r0, r0, lsr r2
    43e0:	e20000ff 	and	r0, r0, #255	; 0xff
    43e4:	e12fff1e 	bx	lr

000043e8 <io_uart0_read_byte>:
    43e8:	e3e02a0f 	mvn	r2, #61440	; 0xf000
    43ec:	e5123fe3 	ldr	r3, [r2, #-4067]
    43f0:	e3130002 	tst	r3, #2	; 0x2
    43f4:	e3e00000 	mvn	r0, #0	; 0x0
    43f8:	15120fe7 	ldrne	r0, [r2, #-4071]
    43fc:	e12fff1e 	bx	lr

00004400 <io_uart0_send_byte>:
    4400:	e3e02a0f 	mvn	r2, #61440	; 0xf000
    4404:	e5123fe3 	ldr	r3, [r2, #-4067]
    4408:	e3130001 	tst	r3, #1	; 0x1
    440c:	0afffffc 	beq	4404 <io_uart0_send_byte+0x4>
    4410:	e20030ff 	and	r3, r0, #255	; 0xff
    4414:	e5023fe7 	str	r3, [r2, #-4071]
    4418:	e12fff1e 	bx	lr

0000441c <io_spi0_config>:
    441c:	e20000ff 	and	r0, r0, #255	; 0xff
    4420:	e3500001 	cmp	r0, #1	; 0x1
    4424:	e3812b01 	orr	r2, r1, #1024	; 0x400
    4428:	03e03a0f 	mvneq	r3, #61440	; 0xf000
    442c:	e3811b09 	orr	r1, r1, #9216	; 0x2400
    4430:	13e03a0f 	mvnne	r3, #61440	; 0xf000
    4434:	05031fcf 	streq	r1, [r3, #-4047]
    4438:	15032fcf 	strne	r2, [r3, #-4047]
    443c:	e12fff1e 	bx	lr

00004440 <io_spi0_speed>:
    4440:	e3e03a0f 	mvn	r3, #61440	; 0xf000
    4444:	e5030fcb 	str	r0, [r3, #-4043]
    4448:	e12fff1e 	bx	lr

0000444c <io_spi0_trans>:
    444c:	e3e02a0f 	mvn	r2, #61440	; 0xf000
    4450:	e5123fcf 	ldr	r3, [r2, #-4047]
    4454:	e3130c01 	tst	r3, #256	; 0x100
    4458:	1afffffc 	bne	4450 <io_spi0_trans+0x4>
    445c:	e5020fbf 	str	r0, [r2, #-4031]
    4460:	e5123fcf 	ldr	r3, [r2, #-4047]
    4464:	e3833c01 	orr	r3, r3, #256	; 0x100
    4468:	e5023fcf 	str	r3, [r2, #-4047]
    446c:	e3e02a0f 	mvn	r2, #61440	; 0xf000
    4470:	e5123fcf 	ldr	r3, [r2, #-4047]
    4474:	e3130c01 	tst	r3, #256	; 0x100
    4478:	1afffffc 	bne	4470 <io_spi0_trans+0x24>
    447c:	e5120fbf 	ldr	r0, [r2, #-4031]
    4480:	e12fff1e 	bx	lr

00004484 <io_spi0_enable>:
    4484:	e3e01a0f 	mvn	r1, #61440	; 0xf000
    4488:	e5113fc7 	ldr	r3, [r1, #-4039]
    448c:	e20000ff 	and	r0, r0, #255	; 0xff
    4490:	e3a02001 	mov	r2, #1	; 0x1
    4494:	e1833012 	orr	r3, r3, r2, lsl r0
    4498:	e5013fc7 	str	r3, [r1, #-4039]
    449c:	e12fff1e 	bx	lr

000044a0 <io_spi0_disable>:
    44a0:	e20000ff 	and	r0, r0, #255	; 0xff
    44a4:	e3a02001 	mov	r2, #1	; 0x1
    44a8:	e1a02012 	mov	r2, r2, lsl r0
    44ac:	e3e01a0f 	mvn	r1, #61440	; 0xf000
    44b0:	e5113fc7 	ldr	r3, [r1, #-4039]
    44b4:	e1e02002 	mvn	r2, r2
    44b8:	e0033002 	and	r3, r3, r2
    44bc:	e5013fc7 	str	r3, [r1, #-4039]
    44c0:	e12fff1e 	bx	lr

000044c4 <io_i2c0_speed>:
    44c4:	e3e02a0f 	mvn	r2, #61440	; 0xf000
    44c8:	e5123f97 	ldr	r3, [r2, #-3991]
    44cc:	e1a01420 	mov	r1, r0, lsr #8
    44d0:	e3c33080 	bic	r3, r3, #128	; 0x80
    44d4:	e5023f97 	str	r3, [r2, #-3991]
    44d8:	e5020f9f 	str	r0, [r2, #-3999]
    44dc:	e5021f9b 	str	r1, [r2, #-3995]
    44e0:	e5123f97 	ldr	r3, [r2, #-3991]
    44e4:	e3833080 	orr	r3, r3, #128	; 0x80
    44e8:	e5023f97 	str	r3, [r2, #-3991]
    44ec:	e12fff1e 	bx	lr

000044f0 <io_i2c0_byte_transfer>:
    44f0:	e92d4030 	stmdb	sp!, {r4, r5, lr}
    44f4:	e3a0c090 	mov	ip, #144	; 0x90
    44f8:	e20140fe 	and	r4, r1, #254	; 0xfe
    44fc:	e3e0ea0f 	mvn	lr, #61440	; 0xf000
    4500:	e5dd500f 	ldrb	r5, [sp, #15]
    4504:	e20000ff 	and	r0, r0, #255	; 0xff
    4508:	e50e4f93 	str	r4, [lr, #-3987]
    450c:	e20110ff 	and	r1, r1, #255	; 0xff
    4510:	e50ecfaf 	str	ip, [lr, #-4015]
    4514:	e1a04002 	mov	r4, r2
    4518:	e203c0ff 	and	ip, r3, #255	; 0xff
    451c:	e51e3faf 	ldr	r3, [lr, #-4015]
    4520:	e3130002 	tst	r3, #2	; 0x2
    4524:	1afffffc 	bne	451c <io_i2c0_byte_transfer+0x2c>
    4528:	e51e3faf 	ldr	r3, [lr, #-4015]
    452c:	e3130080 	tst	r3, #128	; 0x80
    4530:	13e00000 	mvnne	r0, #0	; 0x0
    4534:	18bd8030 	ldmneia	sp!, {r4, r5, pc}
    4538:	e35c0000 	cmp	ip, #0	; 0x0
    453c:	0a000012 	beq	458c <io_i2c0_byte_transfer+0x9c>
    4540:	e24c3001 	sub	r3, ip, #1	; 0x1
    4544:	e203c0ff 	and	ip, r3, #255	; 0xff
    4548:	e35c0001 	cmp	ip, #1	; 0x1
    454c:	01a02424 	moveq	r2, r4, lsr #8
    4550:	03e03a0f 	mvneq	r3, #61440	; 0xf000
    4554:	13e03a0f 	mvnne	r3, #61440	; 0xf000
    4558:	05032f93 	streq	r2, [r3, #-3987]
    455c:	15034f93 	strne	r4, [r3, #-3987]
    4560:	e3e02a0f 	mvn	r2, #61440	; 0xf000
    4564:	e3a03010 	mov	r3, #16	; 0x10
    4568:	e5023faf 	str	r3, [r2, #-4015]
    456c:	e5123faf 	ldr	r3, [r2, #-4015]
    4570:	e3130002 	tst	r3, #2	; 0x2
    4574:	1afffffc 	bne	456c <io_i2c0_byte_transfer+0x7c>
    4578:	e5123faf 	ldr	r3, [r2, #-4015]
    457c:	e3130080 	tst	r3, #128	; 0x80
    4580:	0affffec 	beq	4538 <io_i2c0_byte_transfer+0x48>
    4584:	e3e00001 	mvn	r0, #1	; 0x1
    4588:	e8bd8030 	ldmia	sp!, {r4, r5, pc}
    458c:	e3500077 	cmp	r0, #119	; 0x77
    4590:	1a00000c 	bne	45c8 <io_i2c0_byte_transfer+0xd8>
    4594:	e3e03a0f 	mvn	r3, #61440	; 0xf000
    4598:	e3a02050 	mov	r2, #80	; 0x50
    459c:	e5035f93 	str	r5, [r3, #-3987]
    45a0:	e5032faf 	str	r2, [r3, #-4015]
    45a4:	e1a02003 	mov	r2, r3
    45a8:	e5123faf 	ldr	r3, [r2, #-4015]
    45ac:	e3130002 	tst	r3, #2	; 0x2
    45b0:	1afffffc 	bne	45a8 <io_i2c0_byte_transfer+0xb8>
    45b4:	e5123faf 	ldr	r3, [r2, #-4015]
    45b8:	e2130080 	ands	r0, r3, #128	; 0x80
    45bc:	08bd8030 	ldmeqia	sp!, {r4, r5, pc}
    45c0:	e3e00002 	mvn	r0, #2	; 0x2
    45c4:	e8bd8030 	ldmia	sp!, {r4, r5, pc}
    45c8:	e3500072 	cmp	r0, #114	; 0x72
    45cc:	13e00003 	mvnne	r0, #3	; 0x3
    45d0:	18bd8030 	ldmneia	sp!, {r4, r5, pc}
    45d4:	e3813001 	orr	r3, r1, #1	; 0x1
    45d8:	e3e02a0f 	mvn	r2, #61440	; 0xf000
    45dc:	e3a01090 	mov	r1, #144	; 0x90
    45e0:	e5023f93 	str	r3, [r2, #-3987]
    45e4:	e5021faf 	str	r1, [r2, #-4015]
    45e8:	e5123faf 	ldr	r3, [r2, #-4015]
    45ec:	e3130002 	tst	r3, #2	; 0x2
    45f0:	1afffffc 	bne	45e8 <io_i2c0_byte_transfer+0xf8>
    45f4:	e5123faf 	ldr	r3, [r2, #-4015]
    45f8:	e3130080 	tst	r3, #128	; 0x80
    45fc:	1affffef 	bne	45c0 <io_i2c0_byte_transfer+0xd0>
    4600:	e3a03068 	mov	r3, #104	; 0x68
    4604:	e5023faf 	str	r3, [r2, #-4015]
    4608:	e3e00a0f 	mvn	r0, #61440	; 0xf000
    460c:	e5103faf 	ldr	r3, [r0, #-4015]
    4610:	e3130002 	tst	r3, #2	; 0x2
    4614:	1afffffc 	bne	460c <io_i2c0_byte_transfer+0x11c>
    4618:	e5100f93 	ldr	r0, [r0, #-3987]
    461c:	e8bd8030 	ldmia	sp!, {r4, r5, pc}

00004620 <get_syscpreg>:
    4620:	e20000ff 	and	r0, r0, #255	; 0xff
    4624:	e350000f 	cmp	r0, #15	; 0xf
    4628:	979ff100 	ldrls	pc, [pc, r0, lsl #2]
    462c:	ea00000f 	b	4670 <.text+0x670>
    4630:	000046f0 	streqd	r4, [r0], -r0
    4634:	000046e8 	andeq	r4, r0, r8, ror #13
    4638:	000046e0 	andeq	r4, r0, r0, ror #13
    463c:	000046d8 	ldreqd	r4, [r0], -r8
    4640:	000046d0 	ldreqd	r4, [r0], -r0
    4644:	000046c8 	andeq	r4, r0, r8, asr #13
    4648:	000046c0 	andeq	r4, r0, r0, asr #13
    464c:	000046b8 	streqh	r4, [r0], -r8
    4650:	000046b0 	streqh	r4, [r0], -r0
    4654:	000046a8 	andeq	r4, r0, r8, lsr #13
    4658:	000046a0 	andeq	r4, r0, r0, lsr #13
    465c:	00004698 	muleq	r0, r8, r6
    4660:	00004690 	muleq	r0, r0, r6
    4664:	00004688 	andeq	r4, r0, r8, lsl #13
    4668:	00004680 	andeq	r4, r0, r0, lsl #13
    466c:	00004678 	andeq	r4, r0, r8, ror r6
    4670:	e3a00000 	mov	r0, #0	; 0x0
    4674:	e12fff1e 	bx	lr
    4678:	ee1f0f1f 	mrc	15, 0, r0, cr15, cr15, {0}
    467c:	e12fff1e 	bx	lr
    4680:	ee1e0f1e 	mrc	15, 0, r0, cr14, cr14, {0}
    4684:	e12fff1e 	bx	lr
    4688:	ee1d0f1d 	mrc	15, 0, r0, cr13, cr13, {0}
    468c:	e12fff1e 	bx	lr
    4690:	ee1c0f1c 	mrc	15, 0, r0, cr12, cr12, {0}
    4694:	e12fff1e 	bx	lr
    4698:	ee1b0f1b 	mrc	15, 0, r0, cr11, cr11, {0}
    469c:	e12fff1e 	bx	lr
    46a0:	ee1a0f1a 	mrc	15, 0, r0, cr10, cr10, {0}
    46a4:	e12fff1e 	bx	lr
    46a8:	ee190f19 	mrc	15, 0, r0, cr9, cr9, {0}
    46ac:	e12fff1e 	bx	lr
    46b0:	ee180f18 	mrc	15, 0, r0, cr8, cr8, {0}
    46b4:	e12fff1e 	bx	lr
    46b8:	ee170f17 	mrc	15, 0, r0, cr7, cr7, {0}
    46bc:	e12fff1e 	bx	lr
    46c0:	ee160f16 	mrc	15, 0, r0, cr6, cr6, {0}
    46c4:	e12fff1e 	bx	lr
    46c8:	ee150f15 	mrc	15, 0, r0, cr5, cr5, {0}
    46cc:	e12fff1e 	bx	lr
    46d0:	ee140f14 	mrc	15, 0, r0, cr4, cr4, {0}
    46d4:	e12fff1e 	bx	lr
    46d8:	ee130f13 	mrc	15, 0, r0, cr3, cr3, {0}
    46dc:	e12fff1e 	bx	lr
    46e0:	ee120f12 	mrc	15, 0, r0, cr2, cr2, {0}
    46e4:	e12fff1e 	bx	lr
    46e8:	ee110f11 	mrc	15, 0, r0, cr1, cr1, {0}
    46ec:	e12fff1e 	bx	lr
    46f0:	ee100f10 	mrc	15, 0, r0, cr0, cr0, {0}
    46f4:	e12fff1e 	bx	lr

000046f8 <set_syscpreg>:
    46f8:	e20110ff 	and	r1, r1, #255	; 0xff
    46fc:	e2411006 	sub	r1, r1, #6	; 0x6
    4700:	e3510007 	cmp	r1, #7	; 0x7
    4704:	979ff101 	ldrls	pc, [pc, r1, lsl #2]
    4708:	ea000008 	b	4730 <.text+0x730>
    470c:	00004734 	andeq	r4, r0, r4, lsr r7
    4710:	00004730 	andeq	r4, r0, r0, lsr r7
    4714:	00004730 	andeq	r4, r0, r0, lsr r7
    4718:	00004730 	andeq	r4, r0, r0, lsr r7
    471c:	00004730 	andeq	r4, r0, r0, lsr r7
    4720:	0000473c 	andeq	r4, r0, ip, lsr r7
    4724:	00004744 	andeq	r4, r0, r4, asr #14
    4728:	0000472c 	andeq	r4, r0, ip, lsr #14
    472c:	ee0d0f1d 	mcr	15, 0, r0, cr13, cr13, {0}
    4730:	e12fff1e 	bx	lr
    4734:	ee060f16 	mcr	15, 0, r0, cr6, cr6, {0}
    4738:	e12fff1e 	bx	lr
    473c:	ee0b0f1b 	mcr	15, 0, r0, cr11, cr11, {0}
    4740:	e12fff1e 	bx	lr
    4744:	ee0c0f1c 	mcr	15, 0, r0, cr12, cr12, {0}
    4748:	e12fff1e 	bx	lr

0000474c <uart0_printf>:
    474c:	e92d4010 	stmdb	sp!, {r4, lr}
    4750:	e1a04000 	mov	r4, r0
    4754:	e5d00000 	ldrb	r0, [r0]
    4758:	e3500000 	cmp	r0, #0	; 0x0
    475c:	1a000003 	bne	4770 <uart0_printf+0x24>
    4760:	ea000005 	b	477c <uart0_printf+0x30>
    4764:	e5f40001 	ldrb	r0, [r4, #1]!
    4768:	e3500000 	cmp	r0, #0	; 0x0
    476c:	0a000002 	beq	477c <uart0_printf+0x30>
    4770:	ebffff22 	bl	4400 <io_uart0_send_byte>
    4774:	e3500000 	cmp	r0, #0	; 0x0
    4778:	cafffff9 	bgt	4764 <uart0_printf+0x18>
    477c:	e1a00004 	mov	r0, r4
    4780:	e8bd8010 	ldmia	sp!, {r4, pc}

00004784 <uart0_scanf>:
    4784:	e92d4070 	stmdb	sp!, {r4, r5, r6, lr}
    4788:	e2514000 	subs	r4, r1, #0	; 0x0
    478c:	e1a05000 	mov	r5, r0
    4790:	e20260ff 	and	r6, r2, #255	; 0xff
    4794:	d8bd8070 	ldmleia	sp!, {r4, r5, r6, pc}
    4798:	ebffff12 	bl	43e8 <io_uart0_read_byte>
    479c:	e3700001 	cmn	r0, #1	; 0x1
    47a0:	e20030ff 	and	r3, r0, #255	; 0xff
    47a4:	0a000005 	beq	47c0 <uart0_scanf+0x3c>
    47a8:	e3560001 	cmp	r6, #1	; 0x1
    47ac:	e5c53000 	strb	r3, [r5]
    47b0:	e1a00003 	mov	r0, r3
    47b4:	e2855001 	add	r5, r5, #1	; 0x1
    47b8:	0a000003 	beq	47cc <uart0_scanf+0x48>
    47bc:	e2444001 	sub	r4, r4, #1	; 0x1
    47c0:	e3540000 	cmp	r4, #0	; 0x0
    47c4:	cafffff3 	bgt	4798 <uart0_scanf+0x14>
    47c8:	e8bd8070 	ldmia	sp!, {r4, r5, r6, pc}
    47cc:	ebffff0b 	bl	4400 <io_uart0_send_byte>
    47d0:	eafffff9 	b	47bc <uart0_scanf+0x38>

000047d4 <uart0_print_buffer>:
    47d4:	e92d4030 	stmdb	sp!, {r4, r5, lr}
    47d8:	e2514000 	subs	r4, r1, #0	; 0x0
    47dc:	e1a05000 	mov	r5, r0
    47e0:	d8bd8030 	ldmleia	sp!, {r4, r5, pc}
    47e4:	e4d50001 	ldrb	r0, [r5], #1
    47e8:	ebffff04 	bl	4400 <io_uart0_send_byte>
    47ec:	e2544001 	subs	r4, r4, #1	; 0x1
    47f0:	1afffffb 	bne	47e4 <uart0_print_buffer+0x10>
    47f4:	e8bd8030 	ldmia	sp!, {r4, r5, pc}

000047f8 <memTestDataBus>:
    47f8:	e1a02000 	mov	r2, r0
    47fc:	e3a00001 	mov	r0, #1	; 0x1
    4800:	e5820000 	str	r0, [r2]
    4804:	e5923000 	ldr	r3, [r2]
    4808:	e1530000 	cmp	r3, r0
    480c:	112fff1e 	bxne	lr
    4810:	e1b00080 	movs	r0, r0, lsl #1
    4814:	1afffff9 	bne	4800 <memTestDataBus+0x8>
    4818:	e12fff1e 	bx	lr

0000481c <memTestAddressBus>:
    481c:	e1a01121 	mov	r1, r1, lsr #2
    4820:	e92d4030 	stmdb	sp!, {r4, r5, lr}
    4824:	e241e001 	sub	lr, r1, #1	; 0x1
    4828:	e21e1001 	ands	r1, lr, #1	; 0x1
    482c:	0a00004a 	beq	495c <memTestAddressBus+0x140>
    4830:	e3a01caa 	mov	r1, #43520	; 0xaa00
    4834:	e28110aa 	add	r1, r1, #170	; 0xaa
    4838:	e1811801 	orr	r1, r1, r1, lsl #16
    483c:	e3a02001 	mov	r2, #1	; 0x1
    4840:	e1a03102 	mov	r3, r2, lsl #2
    4844:	e1a02082 	mov	r2, r2, lsl #1
    4848:	e11e0002 	tst	lr, r2
    484c:	e7801003 	str	r1, [r0, r3]
    4850:	1afffffa 	bne	4840 <memTestAddressBus+0x24>
    4854:	e3a03c55 	mov	r3, #21760	; 0x5500
    4858:	e2833055 	add	r3, r3, #85	; 0x55
    485c:	e1a05000 	mov	r5, r0
    4860:	e1833803 	orr	r3, r3, r3, lsl #16
    4864:	e4853004 	str	r3, [r5], #4
    4868:	e5902004 	ldr	r2, [r0, #4]
    486c:	e1520001 	cmp	r2, r1
    4870:	11a0c005 	movne	ip, r5
    4874:	1a000035 	bne	4950 <memTestAddressBus+0x134>
    4878:	e3a01001 	mov	r1, #1	; 0x1
    487c:	ea000002 	b	488c <memTestAddressBus+0x70>
    4880:	e7903003 	ldr	r3, [r0, r3]
    4884:	e1530002 	cmp	r3, r2
    4888:	1a000030 	bne	4950 <memTestAddressBus+0x134>
    488c:	e1a01081 	mov	r1, r1, lsl #1
    4890:	e3a02caa 	mov	r2, #43520	; 0xaa00
    4894:	e28220aa 	add	r2, r2, #170	; 0xaa
    4898:	e1a03101 	mov	r3, r1, lsl #2
    489c:	e11e0001 	tst	lr, r1
    48a0:	e1822802 	orr	r2, r2, r2, lsl #16
    48a4:	e080c003 	add	ip, r0, r3
    48a8:	1afffff4 	bne	4880 <memTestAddressBus+0x64>
    48ac:	e3a03caa 	mov	r3, #43520	; 0xaa00
    48b0:	e3a02c55 	mov	r2, #21760	; 0x5500
    48b4:	e28330aa 	add	r3, r3, #170	; 0xaa
    48b8:	e2822055 	add	r2, r2, #85	; 0x55
    48bc:	e1833803 	orr	r3, r3, r3, lsl #16
    48c0:	e1822802 	orr	r2, r2, r2, lsl #16
    48c4:	e5803000 	str	r3, [r0]
    48c8:	e5852000 	str	r2, [r5]
    48cc:	e5901000 	ldr	r1, [r0]
    48d0:	e1510003 	cmp	r1, r3
    48d4:	03a04001 	moveq	r4, #1	; 0x1
    48d8:	1a000019 	bne	4944 <memTestAddressBus+0x128>
    48dc:	e3a01001 	mov	r1, #1	; 0x1
    48e0:	e1a03101 	mov	r3, r1, lsl #2
    48e4:	e3a0ccaa 	mov	ip, #43520	; 0xaa00
    48e8:	e7902003 	ldr	r2, [r0, r3]
    48ec:	e28cc0aa 	add	ip, ip, #170	; 0xaa
    48f0:	e18cc80c 	orr	ip, ip, ip, lsl #16
    48f4:	e152000c 	cmp	r2, ip
    48f8:	0a000001 	beq	4904 <memTestAddressBus+0xe8>
    48fc:	e1510004 	cmp	r1, r4
    4900:	1a00000f 	bne	4944 <memTestAddressBus+0x128>
    4904:	e1a01081 	mov	r1, r1, lsl #1
    4908:	e11e0001 	tst	lr, r1
    490c:	1afffff3 	bne	48e0 <memTestAddressBus+0xc4>
    4910:	e1a04084 	mov	r4, r4, lsl #1
    4914:	e01e2004 	ands	r2, lr, r4
    4918:	e585c000 	str	ip, [r5]
    491c:	0a000018 	beq	4984 <memTestAddressBus+0x168>
    4920:	e3a03c55 	mov	r3, #21760	; 0x5500
    4924:	e2833055 	add	r3, r3, #85	; 0x55
    4928:	e1a01104 	mov	r1, r4, lsl #2
    492c:	e1833803 	orr	r3, r3, r3, lsl #16
    4930:	e7803001 	str	r3, [r0, r1]
    4934:	e5902000 	ldr	r2, [r0]
    4938:	e152000c 	cmp	r2, ip
    493c:	e0805001 	add	r5, r0, r1
    4940:	0affffe5 	beq	48dc <memTestAddressBus+0xc0>
    4944:	e1a01005 	mov	r1, r5
    4948:	e1a00001 	mov	r0, r1
    494c:	e8bd8030 	ldmia	sp!, {r4, r5, pc}
    4950:	e1a0100c 	mov	r1, ip
    4954:	e1a00001 	mov	r0, r1
    4958:	e8bd8030 	ldmia	sp!, {r4, r5, pc}
    495c:	e3a03c55 	mov	r3, #21760	; 0x5500
    4960:	e3a02caa 	mov	r2, #43520	; 0xaa00
    4964:	e2833055 	add	r3, r3, #85	; 0x55
    4968:	e28220aa 	add	r2, r2, #170	; 0xaa
    496c:	e1833803 	orr	r3, r3, r3, lsl #16
    4970:	e1822802 	orr	r2, r2, r2, lsl #16
    4974:	e5803000 	str	r3, [r0]
    4978:	e5802000 	str	r2, [r0]
    497c:	e1a00001 	mov	r0, r1
    4980:	e8bd8030 	ldmia	sp!, {r4, r5, pc}
    4984:	e1a01002 	mov	r1, r2
    4988:	eaffffee 	b	4948 <memTestAddressBus+0x12c>

0000498c <memTestDevice1>:
    498c:	e1b01121 	movs	r1, r1, lsr #2
    4990:	0a000013 	beq	49e4 <memTestDevice1+0x58>
    4994:	e3a03001 	mov	r3, #1	; 0x1
    4998:	e1a02000 	mov	r2, r0
    499c:	e081c003 	add	ip, r1, r3
    49a0:	e4823004 	str	r3, [r2], #4
    49a4:	e2833001 	add	r3, r3, #1	; 0x1
    49a8:	e15c0003 	cmp	ip, r3
    49ac:	1afffffb 	bne	49a0 <memTestDevice1+0x14>
    49b0:	e5903000 	ldr	r3, [r0]
    49b4:	e3530001 	cmp	r3, #1	; 0x1
    49b8:	112fff1e 	bxne	lr
    49bc:	e2802004 	add	r2, r0, #4	; 0x4
    49c0:	e1a0c003 	mov	ip, r3
    49c4:	ea000002 	b	49d4 <memTestDevice1+0x48>
    49c8:	e4923004 	ldr	r3, [r2], #4
    49cc:	e153000c 	cmp	r3, ip
    49d0:	1a000005 	bne	49ec <memTestDevice1+0x60>
    49d4:	e151000c 	cmp	r1, ip
    49d8:	e1a00002 	mov	r0, r2
    49dc:	e28cc001 	add	ip, ip, #1	; 0x1
    49e0:	1afffff8 	bne	49c8 <memTestDevice1+0x3c>
    49e4:	e3a00000 	mov	r0, #0	; 0x0
    49e8:	e12fff1e 	bx	lr
    49ec:	e12fff1e 	bx	lr

000049f0 <memTestDevice2>:
    49f0:	e1b01121 	movs	r1, r1, lsr #2
    49f4:	e52de004 	str	lr, [sp, #-4]!
    49f8:	0a000015 	beq	4a54 <memTestDevice2+0x64>
    49fc:	e3a02001 	mov	r2, #1	; 0x1
    4a00:	e1a0c000 	mov	ip, r0
    4a04:	e081e002 	add	lr, r1, r2
    4a08:	e1e03002 	mvn	r3, r2
    4a0c:	e2822001 	add	r2, r2, #1	; 0x1
    4a10:	e15e0002 	cmp	lr, r2
    4a14:	e48c3004 	str	r3, [ip], #4
    4a18:	1afffffa 	bne	4a08 <memTestDevice2+0x18>
    4a1c:	e5903000 	ldr	r3, [r0]
    4a20:	e3730002 	cmn	r3, #2	; 0x2
    4a24:	149df004 	ldrne	pc, [sp], #4
    4a28:	e2802004 	add	r2, r0, #4	; 0x4
    4a2c:	e3a0e001 	mov	lr, #1	; 0x1
    4a30:	ea000002 	b	4a40 <memTestDevice2+0x50>
    4a34:	e4923004 	ldr	r3, [r2], #4
    4a38:	e15c0003 	cmp	ip, r3
    4a3c:	1a000006 	bne	4a5c <memTestDevice2+0x6c>
    4a40:	e151000e 	cmp	r1, lr
    4a44:	e28ee001 	add	lr, lr, #1	; 0x1
    4a48:	e1a00002 	mov	r0, r2
    4a4c:	e1e0c00e 	mvn	ip, lr
    4a50:	1afffff7 	bne	4a34 <memTestDevice2+0x44>
    4a54:	e3a00000 	mov	r0, #0	; 0x0
    4a58:	e49df004 	ldr	pc, [sp], #4
    4a5c:	e49df004 	ldr	pc, [sp], #4

00004a60 <long_to_hex_string>:
    4a60:	e92d4010 	stmdb	sp!, {r4, lr}
    4a64:	e20240ff 	and	r4, r2, #255	; 0xff
    4a68:	e3540008 	cmp	r4, #8	; 0x8
    4a6c:	83a04008 	movhi	r4, #8	; 0x8
    4a70:	8a000001 	bhi	4a7c <long_to_hex_string+0x1c>
    4a74:	e3540000 	cmp	r4, #0	; 0x0
    4a78:	03a04001 	moveq	r4, #1	; 0x1
    4a7c:	e1a02001 	mov	r2, r1
    4a80:	e1a0e004 	mov	lr, r4
    4a84:	e1a0310e 	mov	r3, lr, lsl #2
    4a88:	e35e0001 	cmp	lr, #1	; 0x1
    4a8c:	e2433004 	sub	r3, r3, #4	; 0x4
    4a90:	e1a0c000 	mov	ip, r0
    4a94:	81a0c330 	movhi	ip, r0, lsr r3
    4a98:	e24e3001 	sub	r3, lr, #1	; 0x1
    4a9c:	e20cc00f 	and	ip, ip, #15	; 0xf
    4aa0:	e203e0ff 	and	lr, r3, #255	; 0xff
    4aa4:	e35c0009 	cmp	ip, #9	; 0x9
    4aa8:	e28c3030 	add	r3, ip, #48	; 0x30
    4aac:	828c3037 	addhi	r3, ip, #55	; 0x37
    4ab0:	e35e0000 	cmp	lr, #0	; 0x0
    4ab4:	e4c23001 	strb	r3, [r2], #1
    4ab8:	1afffff1 	bne	4a84 <long_to_hex_string+0x24>
    4abc:	e2443001 	sub	r3, r4, #1	; 0x1
    4ac0:	e20330ff 	and	r3, r3, #255	; 0xff
    4ac4:	e0813003 	add	r3, r1, r3
    4ac8:	e5c3e001 	strb	lr, [r3, #1]
    4acc:	e8bd8010 	ldmia	sp!, {r4, pc}

00004ad0 <main>:
    4ad0:	e92d4070 	stmdb	sp!, {r4, r5, r6, lr}
    4ad4:	e59f31c4 	ldr	r3, [pc, #452]	; 4ca0 <.text+0xca0>
    4ad8:	e1d330b0 	ldrh	r3, [r3]
    4adc:	e24dd00c 	sub	sp, sp, #12	; 0xc
    4ae0:	e1cd30b2 	strh	r3, [sp, #2]
    4ae4:	e59f01b8 	ldr	r0, [pc, #440]	; 4ca4 <.text+0xca4>
    4ae8:	e3a03000 	mov	r3, #0	; 0x0
    4aec:	e1cd30b4 	strh	r3, [sp, #4]
    4af0:	e1cd30b6 	strh	r3, [sp, #6]
    4af4:	e1cd30b8 	strh	r3, [sp, #8]
    4af8:	e1cd30ba 	strh	r3, [sp, #10]
    4afc:	e28d5002 	add	r5, sp, #2	; 0x2
    4b00:	ebffff11 	bl	474c <uart0_printf>
    4b04:	e59f019c 	ldr	r0, [pc, #412]	; 4ca8 <.text+0xca8>
    4b08:	ebffff0f 	bl	474c <uart0_printf>
    4b0c:	e1a01005 	mov	r1, r5
    4b10:	e3a02008 	mov	r2, #8	; 0x8
    4b14:	e3a00401 	mov	r0, #16777216	; 0x1000000
    4b18:	ebffffd0 	bl	4a60 <long_to_hex_string>
    4b1c:	e1a00005 	mov	r0, r5
    4b20:	ebffff09 	bl	474c <uart0_printf>
    4b24:	e59f0180 	ldr	r0, [pc, #384]	; 4cac <.text+0xcac>
    4b28:	ebffff07 	bl	474c <uart0_printf>
    4b2c:	e59f017c 	ldr	r0, [pc, #380]	; 4cb0 <.text+0xcb0>
    4b30:	ebffff05 	bl	474c <uart0_printf>
    4b34:	e1a01005 	mov	r1, r5
    4b38:	e3a02008 	mov	r2, #8	; 0x8
    4b3c:	e3a00402 	mov	r0, #33554432	; 0x2000000
    4b40:	ebffffc6 	bl	4a60 <long_to_hex_string>
    4b44:	e1a00005 	mov	r0, r5
    4b48:	ebfffeff 	bl	474c <uart0_printf>
    4b4c:	e59f0158 	ldr	r0, [pc, #344]	; 4cac <.text+0xcac>
    4b50:	ebfffefd 	bl	474c <uart0_printf>
    4b54:	e3a06001 	mov	r6, #1	; 0x1
    4b58:	ea00002a 	b	4c08 <main+0x138>
    4b5c:	e59f0150 	ldr	r0, [pc, #336]	; 4cb4 <.text+0xcb4>
    4b60:	ebfffef9 	bl	474c <uart0_printf>
    4b64:	e1a01005 	mov	r1, r5
    4b68:	e3a02008 	mov	r2, #8	; 0x8
    4b6c:	e1a00004 	mov	r0, r4
    4b70:	ebffffba 	bl	4a60 <long_to_hex_string>
    4b74:	e1a00005 	mov	r0, r5
    4b78:	ebfffef3 	bl	474c <uart0_printf>
    4b7c:	e59f0128 	ldr	r0, [pc, #296]	; 4cac <.text+0xcac>
    4b80:	ebfffef1 	bl	474c <uart0_printf>
    4b84:	e3a00401 	mov	r0, #16777216	; 0x1000000
    4b88:	e3a01402 	mov	r1, #33554432	; 0x2000000
    4b8c:	ebffff7e 	bl	498c <memTestDevice1>
    4b90:	e2504000 	subs	r4, r0, #0	; 0x0
    4b94:	0a00002d 	beq	4c50 <main+0x180>
    4b98:	e59f0118 	ldr	r0, [pc, #280]	; 4cb8 <.text+0xcb8>
    4b9c:	ebfffeea 	bl	474c <uart0_printf>
    4ba0:	e1a01005 	mov	r1, r5
    4ba4:	e3a02008 	mov	r2, #8	; 0x8
    4ba8:	e1a00004 	mov	r0, r4
    4bac:	ebffffab 	bl	4a60 <long_to_hex_string>
    4bb0:	e1a00005 	mov	r0, r5
    4bb4:	ebfffee4 	bl	474c <uart0_printf>
    4bb8:	e59f00ec 	ldr	r0, [pc, #236]	; 4cac <.text+0xcac>
    4bbc:	ebfffee2 	bl	474c <uart0_printf>
    4bc0:	e3a00401 	mov	r0, #16777216	; 0x1000000
    4bc4:	e3a01402 	mov	r1, #33554432	; 0x2000000
    4bc8:	ebffff88 	bl	49f0 <memTestDevice2>
    4bcc:	e2504000 	subs	r4, r0, #0	; 0x0
    4bd0:	0a000025 	beq	4c6c <main+0x19c>
    4bd4:	e59f00e0 	ldr	r0, [pc, #224]	; 4cbc <.text+0xcbc>
    4bd8:	ebfffedb 	bl	474c <uart0_printf>
    4bdc:	e1a01005 	mov	r1, r5
    4be0:	e3a02008 	mov	r2, #8	; 0x8
    4be4:	e1a00004 	mov	r0, r4
    4be8:	ebffff9c 	bl	4a60 <long_to_hex_string>
    4bec:	e1a00005 	mov	r0, r5
    4bf0:	ebfffed5 	bl	474c <uart0_printf>
    4bf4:	e2866001 	add	r6, r6, #1	; 0x1
    4bf8:	e59f00ac 	ldr	r0, [pc, #172]	; 4cac <.text+0xcac>
    4bfc:	ebfffed2 	bl	474c <uart0_printf>
    4c00:	e3560065 	cmp	r6, #101	; 0x65
    4c04:	0a00001d 	beq	4c80 <main+0x1b0>
    4c08:	e3a00401 	mov	r0, #16777216	; 0x1000000
    4c0c:	ebfffef9 	bl	47f8 <memTestDataBus>
    4c10:	e3500000 	cmp	r0, #0	; 0x0
    4c14:	1a00001c 	bne	4c8c <main+0x1bc>
    4c18:	e59f00a0 	ldr	r0, [pc, #160]	; 4cc0 <.text+0xcc0>
    4c1c:	ebfffeca 	bl	474c <uart0_printf>
    4c20:	e3a00401 	mov	r0, #16777216	; 0x1000000
    4c24:	e3a01402 	mov	r1, #33554432	; 0x2000000
    4c28:	ebfffefb 	bl	481c <memTestAddressBus>
    4c2c:	e2504000 	subs	r4, r0, #0	; 0x0
    4c30:	1affffc9 	bne	4b5c <main+0x8c>
    4c34:	e59f0088 	ldr	r0, [pc, #136]	; 4cc4 <.text+0xcc4>
    4c38:	ebfffec3 	bl	474c <uart0_printf>
    4c3c:	e3a00401 	mov	r0, #16777216	; 0x1000000
    4c40:	e3a01402 	mov	r1, #33554432	; 0x2000000
    4c44:	ebffff50 	bl	498c <memTestDevice1>
    4c48:	e2504000 	subs	r4, r0, #0	; 0x0
    4c4c:	1affffd1 	bne	4b98 <main+0xc8>
    4c50:	e59f0070 	ldr	r0, [pc, #112]	; 4cc8 <.text+0xcc8>
    4c54:	ebfffebc 	bl	474c <uart0_printf>
    4c58:	e3a00401 	mov	r0, #16777216	; 0x1000000
    4c5c:	e3a01402 	mov	r1, #33554432	; 0x2000000
    4c60:	ebffff62 	bl	49f0 <memTestDevice2>
    4c64:	e2504000 	subs	r4, r0, #0	; 0x0
    4c68:	1affffd9 	bne	4bd4 <main+0x104>
    4c6c:	e59f0058 	ldr	r0, [pc, #88]	; 4ccc <.text+0xccc>
    4c70:	e2866001 	add	r6, r6, #1	; 0x1
    4c74:	ebfffeb4 	bl	474c <uart0_printf>
    4c78:	e3560065 	cmp	r6, #101	; 0x65
    4c7c:	1affffe1 	bne	4c08 <main+0x138>
    4c80:	e3a0fa01 	mov	pc, #4096	; 0x1000
    4c84:	e3a00000 	mov	r0, #0	; 0x0
    4c88:	ea000002 	b	4c98 <main+0x1c8>
    4c8c:	e59f003c 	ldr	r0, [pc, #60]	; 4cd0 <.text+0xcd0>
    4c90:	ebfffead 	bl	474c <uart0_printf>
    4c94:	e3e00000 	mvn	r0, #0	; 0x0
    4c98:	e28dd00c 	add	sp, sp, #12	; 0xc
    4c9c:	e8bd8070 	ldmia	sp!, {r4, r5, r6, pc}
    4ca0:	00004cf4 	streqd	r4, [r0], -r4
    4ca4:	00004d00 	andeq	r4, r0, r0, lsl #26
    4ca8:	00004d1c 	andeq	r4, r0, ip, lsl sp
    4cac:	00004da4 	andeq	r4, r0, r4, lsr #27
    4cb0:	00004d2c 	andeq	r4, r0, ip, lsr #26
    4cb4:	00004d70 	andeq	r4, r0, r0, ror sp
    4cb8:	00004da8 	andeq	r4, r0, r8, lsr #27
    4cbc:	00004dd8 	ldreqd	r4, [r0], -r8
    4cc0:	00004d58 	andeq	r4, r0, r8, asr sp
    4cc4:	00004d8c 	andeq	r4, r0, ip, lsl #27
    4cc8:	00004dc0 	andeq	r4, r0, r0, asr #27
    4ccc:	00004df0 	streqd	r4, [r0], -r0
    4cd0:	00004d40 	andeq	r4, r0, r0, asr #26

00004cd4 <io_enable_xint>:
    4cd4:	e10f3000 	mrs	r3, CPSR
    4cd8:	e3c330c0 	bic	r3, r3, #192	; 0xc0
    4cdc:	e129f003 	msr	CPSR_fc, r3
    4ce0:	e12fff1e 	bx	lr

00004ce4 <io_disable_xint>:
    4ce4:	e10f3000 	mrs	r3, CPSR
    4ce8:	e38330c0 	orr	r3, r3, #192	; 0xc0
    4cec:	e129f003 	msr	CPSR_fc, r3
    4cf0:	e12fff1e 	bx	lr
	...
    4d00:	53746172 	cmnpl	r4, #-2147483620	; 0x8000001c
    4d04:	74696e67 	strvcbt	r6, [r9], #-3687
    4d08:	204d454d 	subcs	r4, sp, sp, asr #10
    4d0c:	54455354 	strplb	r5, [r5], #-852
    4d10:	20746573 	rsbcss	r6, r4, r3, ror r5
    4d14:	74730d0a 	ldrvcbt	r0, [r3], #-3338
    4d18:	00000000 	andeq	r0, r0, r0
    4d1c:	42415345 	submi	r5, r1, #335544321	; 0x14000001
    4d20:	20414444 	subcs	r4, r1, r4, asr #8
    4d24:	52455353 	subpl	r5, r5, #1275068417	; 0x4c000001
    4d28:	3a202000 	bcc	80cd30 <_end+0x803e30>
    4d2c:	4e756d62 	cdpmi	13, 7, cr6, cr5, cr2, {3}
    4d30:	6572206f 	ldrvsb	r2, [r2, #-111]!
    4d34:	66204279 	undefined
    4d38:	74657374 	strvcbt	r7, [r5], #-884
    4d3c:	3a202000 	bcc	80cd44 <_end+0x803e44>
    4d40:	6d656d54 	stcvsl	13, cr6, [r5, #-336]!
    4d44:	65737444 	ldrvsb	r7, [r3, #-1092]!
    4d48:	61746142 	cmnvs	r4, r2, asr #2
    4d4c:	75732046 	ldrvcb	r2, [r3, #-70]!
    4d50:	41494c45 	cmpmi	r9, r5, asr #24
    4d54:	440d0a00 	strmi	r0, [sp], #-2560
    4d58:	6d656d54 	stcvsl	13, cr6, [r5, #-336]!
    4d5c:	65737444 	ldrvsb	r7, [r3, #-1092]!
    4d60:	61746142 	cmnvs	r4, r2, asr #2
    4d64:	75732050 	ldrvcb	r2, [r3, #-80]!
    4d68:	61737365 	cmnvs	r3, r5, ror #6
    4d6c:	640d0a00 	strvs	r0, [sp], #-2560
    4d70:	6d656d54 	stcvsl	13, cr6, [r5, #-336]!
    4d74:	65737441 	ldrvsb	r7, [r3, #-1089]!
    4d78:	64647265 	strvsbt	r7, [r4], #-613
    4d7c:	73734275 	cmnvc	r3, #1342177287	; 0x50000007
    4d80:	73204641 	teqvc	r0, #68157440	; 0x4100000
    4d84:	494c4544 	stmmidb	ip, {r2, r6, r8, sl, lr}^
    4d88:	20000000 	andcs	r0, r0, r0
    4d8c:	6d656d54 	stcvsl	13, cr6, [r5, #-336]!
    4d90:	65737441 	ldrvsb	r7, [r3, #-1089]!
    4d94:	64647265 	strvsbt	r7, [r4], #-613
    4d98:	73734275 	cmnvc	r3, #1342177287	; 0x50000007
    4d9c:	73205061 	teqvc	r0, #97	; 0x61
    4da0:	73736564 	cmnvc	r3, #419430400	; 0x19000000
    4da4:	0d0a0000 	stceq	0, cr0, [sl]
    4da8:	6d656d54 	stcvsl	13, cr6, [r5, #-336]!
    4dac:	65737444 	ldrvsb	r7, [r3, #-1092]!
    4db0:	65766963 	ldrvsb	r6, [r6, #-2403]!
    4db4:	65312046 	ldrvs	r2, [r1, #-70]!
    4db8:	41494c45 	cmpmi	r9, r5, asr #24
    4dbc:	44200000 	strmit	r0, [r0]
    4dc0:	6d656d54 	stcvsl	13, cr6, [r5, #-336]!
    4dc4:	65737444 	ldrvsb	r7, [r3, #-1092]!
    4dc8:	65766963 	ldrvsb	r6, [r6, #-2403]!
    4dcc:	65312050 	ldrvs	r2, [r1, #-80]!
    4dd0:	61737365 	cmnvs	r3, r5, ror #6
    4dd4:	640d0a00 	strvs	r0, [sp], #-2560
    4dd8:	6d656d54 	stcvsl	13, cr6, [r5, #-336]!
    4ddc:	65737444 	ldrvsb	r7, [r3, #-1092]!
    4de0:	65766963 	ldrvsb	r6, [r6, #-2403]!
    4de4:	65322046 	ldrvs	r2, [r2, #-70]!
    4de8:	41494c45 	cmpmi	r9, r5, asr #24
    4dec:	44200000 	strmit	r0, [r0]
    4df0:	6d656d54 	stcvsl	13, cr6, [r5, #-336]!
    4df4:	65737444 	ldrvsb	r7, [r3, #-1092]!
    4df8:	65766963 	ldrvsb	r6, [r6, #-2403]!
    4dfc:	65322050 	ldrvs	r2, [r2, #-80]!
    4e00:	61737365 	cmnvs	r3, r5, ror #6
    4e04:	640d0a00 	strvs	r0, [sp], #-2560
