   1              		.file	"main.c"
   9              	.Ltext0:
  10              		.align	2
  11              		.global	io_read_gpio0_pin
  13              	io_read_gpio0_pin:
  14              	.LFB2:
  15              		.file 1 "../lib/io_driver.c"
   1:../lib/io_driver.c **** #include "io_driver.h"
   2:../lib/io_driver.c **** #include "storm_core.h"
   3:../lib/io_driver.c **** #include "storm_soc_basic.h"
   4:../lib/io_driver.c **** 
   5:../lib/io_driver.c **** // ################################################################################################
   6:../lib/io_driver.c **** // General Purpose IO (GENERAL_PURPOSE_CONTROLLER_0)
   7:../lib/io_driver.c **** // ################################################################################################
   8:../lib/io_driver.c **** 
   9:../lib/io_driver.c **** // ******************************************************************************
  10:../lib/io_driver.c **** // Read general purpose IO pin
  11:../lib/io_driver.c ****    unsigned long io_read_gpio0_pin(unsigned char pin)
  12:../lib/io_driver.c **** // ******************************************************************************
  13:../lib/io_driver.c **** {
  16              	 args = 0, pretend = 0, frame = 0
  17              		@ frame_needed = 0, uses_anonymous_args = 0
  18              		@ link register save eliminated.
  19              	.LVL0:
  20              		.loc 1 17 0
  14:../lib/io_driver.c **** //	unsigned long _cmsr = get_cmsr();
  15:../lib/io_driver.c **** //	set_cmsr(_cmsr  | (1<<CMSR_IRQ) | (1<<CMSR_FIQ));
  16:../lib/io_driver.c **** 
  17:../lib/io_driver.c **** 		unsigned long temp = GPIO0_IN & (1<<pin);
  21              	r3, #61440
  22 0000 E3E03A0F 		ldr	r1, [r3, #-4091]
  23 0004 E5131FFB 		.loc 1 13 0
  24              		and	r2, r0, #255
  25 0008 E20020FF 		.loc 1 21 0
  18:../lib/io_driver.c **** 	
  19:../lib/io_driver.c **** //	set_cmsr(_cmsr);
  20:../lib/io_driver.c **** 	return temp;
  21:../lib/io_driver.c **** }
  26              	r0, #1
  27 000c E3A00001 	.LVL1:
  28              		and	r0, r1, r0, asl r2
  29 0010 E0010210 		.loc 1 13 0
  30              		@ lr needed for prologue
  31              		.loc 1 21 0
  32              		bx	lr
  33 0014 E12FFF1E 	.LFE2:
  35              		.align	2
  36              		.global	io_read_gpio0_port
  38              	io_read_gpio0_port:
  39              	.LFB3:
  40              		.loc 1 27 0
  22:../lib/io_driver.c **** 
  23:../lib/io_driver.c **** // ******************************************************************************
  24:../lib/io_driver.c **** // Read general purpose IO port
  25:../lib/io_driver.c ****    unsigned long io_read_gpio0_port(void)
  26:../lib/io_driver.c **** // ******************************************************************************
  27:../lib/io_driver.c **** {
  41              	etend = 0, frame = 0
  42              		@ frame_needed = 0, uses_anonymous_args = 0
  43              		@ link register save eliminated.
  44              		.loc 1 31 0
  28:../lib/io_driver.c **** //	unsigned long _cmsr = get_cmsr();
  29:../lib/io_driver.c **** //	set_cmsr(_cmsr  | (1<<CMSR_IRQ) | (1<<CMSR_FIQ));
  30:../lib/io_driver.c **** 
  31:../lib/io_driver.c **** 		unsigned long temp = GPIO0_IN;
  45              		r3, #61440
  46 0018 E3E03A0F 		ldr	r0, [r3, #-4091]
  47 001c E5130FFB 	.LVL2:
  48              		.loc 1 27 0
  49              		@ lr needed for prologue
  50              	.LVL3:
  51              		.loc 1 35 0
  32:../lib/io_driver.c **** 
  33:../lib/io_driver.c **** //	set_cmsr(_cmsr);
  34:../lib/io_driver.c **** 	return temp;
  35:../lib/io_driver.c **** }
  52              	.LFE3:
  54              		.align	2
  55              		.global	io_set_gpio0_pin
  57              	io_set_gpio0_pin:
  58              	.LFB4:
  59              		.loc 1 41 0
  60              		@ args = 0, pretend = 0, frame = 0
  36:../lib/io_driver.c **** 
  37:../lib/io_driver.c **** // ******************************************************************************
  38:../lib/io_driver.c **** // Set general purpose IO port
  39:../lib/io_driver.c ****    void io_set_gpio0_pin(unsigned char pin)
  40:../lib/io_driver.c **** // ******************************************************************************
  41:../lib/io_driver.c **** {
  61              	needed = 0, uses_anonymous_args = 0
  62              		@ link register save eliminated.
  63              	.LVL4:
  64              		.loc 1 45 0
  65              		mvn	r1, #61440
  42:../lib/io_driver.c **** //	unsigned long _cmsr = get_cmsr();
  43:../lib/io_driver.c **** //	set_cmsr(_cmsr  | (1<<CMSR_IRQ) | (1<<CMSR_FIQ));
  44:../lib/io_driver.c **** 
  45:../lib/io_driver.c **** 		GPIO0_OUT = GPIO0_OUT | (1<<pin);
  66              	r3, [r1, #-4095]
  67 0024 E3E01A0F 		.loc 1 41 0
  68 0028 E5113FFF 		and	r0, r0, #255
  69              		.loc 1 45 0
  70 002c E20000FF 		mov	r2, #1
  71              		orr	r3, r3, r2, asl r0
  72 0030 E3A02001 		.loc 1 41 0
  73 0034 E1833012 		@ lr needed for prologue
  74              		.loc 1 45 0
  75              		str	r3, [r1, #-4095]
  76              		.loc 1 48 0
  77 0038 E5013FFF 		bx	lr
  46:../lib/io_driver.c **** 
  47:../lib/io_driver.c **** //	set_cmsr(_cmsr);
  48:../lib/io_driver.c **** }
  78              	e	io_set_gpio0_pin, .-io_set_gpio0_pin
  79 003c E12FFF1E 		.align	2
  80              		.global	io_clr_gpio0_pin
  82              	io_clr_gpio0_pin:
  83              	.LFB5:
  84              		.loc 1 54 0
  85              		@ args = 0, pretend = 0, frame = 0
  86              		@ frame_needed = 0, uses_anonymous_args = 0
  49:../lib/io_driver.c **** 
  50:../lib/io_driver.c **** // ******************************************************************************
  51:../lib/io_driver.c **** // Clear general purpose IO port
  52:../lib/io_driver.c ****    void io_clr_gpio0_pin(unsigned char pin)
  53:../lib/io_driver.c **** // ******************************************************************************
  54:../lib/io_driver.c **** {
  87              	egister save eliminated.
  88              	.LVL5:
  89              		and	r0, r0, #255
  90              		.loc 1 58 0
  91              		mov	r2, #1
  92 0040 E20000FF 		mov	r2, r2, asl r0
  55:../lib/io_driver.c **** //	unsigned long _cmsr = get_cmsr();
  56:../lib/io_driver.c **** //	set_cmsr(_cmsr  | (1<<CMSR_IRQ) | (1<<CMSR_FIQ));
  57:../lib/io_driver.c **** 
  58:../lib/io_driver.c **** 		GPIO0_OUT = GPIO0_OUT & ~(1<<pin);
  93              	1, #61440
  94 0044 E3A02001 		ldr	r3, [r1, #-4095]
  95 0048 E1A02012 		mvn	r2, r2
  96 004c E3E01A0F 		and	r3, r3, r2
  97 0050 E5113FFF 		.loc 1 54 0
  98 0054 E1E02002 		@ lr needed for prologue
  99 0058 E0033002 		.loc 1 58 0
 100              		str	r3, [r1, #-4095]
 101              		.loc 1 61 0
 102              		bx	lr
 103 005c E5013FFF 	.LFE5:
  59:../lib/io_driver.c **** 
  60:../lib/io_driver.c **** //	set_cmsr(_cmsr);
  61:../lib/io_driver.c **** }
 104              	lr_gpio0_pin, .-io_clr_gpio0_pin
 105 0060 E12FFF1E 		.align	2
 106              		.global	io_toggle_gpio0_pin
 108              	io_toggle_gpio0_pin:
 109              	.LFB6:
 110              		.loc 1 66 0
 111              		@ args = 0, pretend = 0, frame = 0
 112              		@ frame_needed = 0, uses_anonymous_args = 0
  62:../lib/io_driver.c **** // ******************************************************************************
  63:../lib/io_driver.c **** // Set general purpose IO port
  64:../lib/io_driver.c ****    void io_toggle_gpio0_pin(unsigned char pin)
  65:../lib/io_driver.c **** // ******************************************************************************
  66:../lib/io_driver.c **** {
 113              	egister save eliminated.
 114              	.LVL6:
 115              		.loc 1 70 0
 116              		mvn	r1, #61440
 117              		ldr	r3, [r1, #-4095]
  67:../lib/io_driver.c **** //	unsigned long _cmsr = get_cmsr();
  68:../lib/io_driver.c **** //	set_cmsr(_cmsr  | (1<<CMSR_IRQ) | (1<<CMSR_FIQ));
  69:../lib/io_driver.c **** 
  70:../lib/io_driver.c **** 		GPIO0_OUT = GPIO0_OUT ^ (1<<pin);
 118              	 1 66 0
 119 0064 E3E01A0F 		and	r0, r0, #255
 120 0068 E5113FFF 		.loc 1 70 0
 121              		mov	r2, #1
 122 006c E20000FF 		eor	r3, r3, r2, asl r0
 123              		.loc 1 66 0
 124 0070 E3A02001 		@ lr needed for prologue
 125 0074 E0233012 		.loc 1 70 0
 126              		str	r3, [r1, #-4095]
 127              		.loc 1 73 0
 128              		bx	lr
 129 0078 E5013FFF 	.LFE6:
  71:../lib/io_driver.c **** 
  72:../lib/io_driver.c **** //	set_cmsr(_cmsr);
  73:../lib/io_driver.c **** }
 130              	ggle_gpio0_pin, .-io_toggle_gpio0_pin
 131 007c E12FFF1E 		.align	2
 132              		.global	io_set_gpio0_port
 134              	io_set_gpio0_port:
 135              	.LFB7:
 136              		.loc 1 79 0
 137              		@ args = 0, pretend = 0, frame = 0
 138              		@ frame_needed = 0, uses_anonymous_args = 0
  74:../lib/io_driver.c **** 
  75:../lib/io_driver.c **** // ******************************************************************************
  76:../lib/io_driver.c **** // Clear general purpose IO port
  77:../lib/io_driver.c ****    void io_set_gpio0_port(unsigned long value)
  78:../lib/io_driver.c **** // ******************************************************************************
  79:../lib/io_driver.c **** {
 139              	egister save eliminated.
 140              	.LVL7:
 141              		.loc 1 83 0
 142              		mvn	r3, #61440
 143              		.loc 1 79 0
  80:../lib/io_driver.c **** //	unsigned long _cmsr = get_cmsr();
  81:../lib/io_driver.c **** //	set_cmsr(_cmsr  | (1<<CMSR_IRQ) | (1<<CMSR_FIQ));
  82:../lib/io_driver.c **** 
  83:../lib/io_driver.c **** 		GPIO0_OUT = value;
 144              	 needed for prologue
 145 0080 E3E03A0F 		.loc 1 83 0
 146              		str	r0, [r3, #-4095]
 147              		.loc 1 86 0
 148              		bx	lr
 149 0084 E5030FFF 	.LFE7:
  84:../lib/io_driver.c **** 
  85:../lib/io_driver.c **** //	set_cmsr(_cmsr);
  86:../lib/io_driver.c **** }
 150              		io_set_gpio0_port, .-io_set_gpio0_port
 151 0088 E12FFF1E 		.align	2
 152              		.global	io_set_pwm
 154              	io_set_pwm:
 155              	.LFB8:
 156              		.loc 1 98 0
 157              		@ args = 0, pretend = 0, frame = 0
 158              		@ frame_needed = 0, uses_anonymous_args = 0
  87:../lib/io_driver.c **** 
  88:../lib/io_driver.c **** 
  89:../lib/io_driver.c **** 
  90:../lib/io_driver.c **** // ################################################################################################
  91:../lib/io_driver.c **** // Pulse-Width-Modulation Controller
  92:../lib/io_driver.c **** // ################################################################################################
  93:../lib/io_driver.c **** 
  94:../lib/io_driver.c **** // ******************************************************************************
  95:../lib/io_driver.c **** // Set pwm value
  96:../lib/io_driver.c ****    void io_set_pwm(unsigned char port, unsigned char data)
  97:../lib/io_driver.c **** // ******************************************************************************
  98:../lib/io_driver.c **** {
 159              	nd	r0, r0, #255
 160              		.loc 1 105 0
 161              		cmp	r0, #7
 162              		.loc 1 98 0
 163 008c E20000FF 		stmfd	sp!, {r4, lr}
  99:../lib/io_driver.c **** //	unsigned long _cmsr = get_cmsr();
 100:../lib/io_driver.c **** //	set_cmsr(_cmsr  | (1<<CMSR_IRQ) | (1<<CMSR_FIQ));
 101:../lib/io_driver.c **** 
 102:../lib/io_driver.c **** 	unsigned long temp = 0;
 103:../lib/io_driver.c **** 
 104:../lib/io_driver.c **** 	// value adjustment
 105:../lib/io_driver.c **** 	if(port > 7)
 164              	0:
 165 0090 E3500007 		.loc 1 105 0
 166              		mov	ip, #0
 167 0094 E92D4010 		mvn	lr, #255
 168              		.loc 1 98 0
 169              		and	r1, r1, #255
 170 0098 E3A0C000 		.loc 1 105 0
 171 009c E3E0E0FF 		bhi	.L16
 172              		.loc 1 117 0
 173 00a0 E20110FF 		sub	r3, r0, #4
 174              		and	r3, r3, #255
 175 00a4 8A000011 		.loc 1 108 0
 106:../lib/io_driver.c **** 		port = 0;
 107:../lib/io_driver.c **** 
 108:../lib/io_driver.c **** 	if(port < 4){
 109:../lib/io_driver.c **** 		temp = PWM0_CONF0; // get working copy
 110:../lib/io_driver.c **** 		temp = temp & ~(0xFF << (port*8)); // clear old value
 111:../lib/io_driver.c **** 		temp = temp | (unsigned long)(data << (port*8)); // insert new value
 112:../lib/io_driver.c **** 		PWM0_CONF0 = temp;
 113:../lib/io_driver.c **** 	}
 114:../lib/io_driver.c **** 	else{
 115:../lib/io_driver.c **** 		port = port-4;
 116:../lib/io_driver.c **** 		temp = PWM0_CONF1; // get working copy
 117:../lib/io_driver.c **** 		temp = temp & ~(0xFF << (port*8)); // clear old value
 176              		.loc 1 117 0
 177 00a8 E2403004 		mov	lr, r3, asl #3
 178 00ac E20330FF 		.loc 1 116 0
 179              		mvn	r4, #61440
 180 00b0 E3500003 		.loc 1 108 0
 181              		mov	ip, r0, asl #3
 182 00b4 E1A0E183 		bls	.L22
 183              		.loc 1 117 0
 184 00b8 E3E04A0F 		mov	r3, #255
 185              		mov	r3, r3, asl lr
 186 00bc E1A0C180 		.loc 1 116 0
 187 00c0 9A000007 		ldr	r2, [r4, #-3979]
 188              	.LVL9:
 189 00c4 E3A030FF 		.loc 1 117 0
 190 00c8 E1A03E13 		mvn	r3, r3
 191              		and	r2, r2, r3
 192 00cc E5142F8B 	.LVL10:
 193              		.loc 1 118 0
 194              		orr	r2, r2, r1, asl lr
 195 00d0 E1E03003 	.LVL11:
 196 00d4 E0022003 		.loc 1 119 0
 197              		str	r2, [r4, #-3979]
 118:../lib/io_driver.c **** 		temp = temp | (unsigned long)(data << (port*8)); // insert new value
 198              	LVL12:
 199 00d8 E1822E11 	.L22:
 200              		.loc 1 108 0
 119:../lib/io_driver.c **** 		PWM0_CONF1 = temp;
 201              	v	r3, #255
 202 00dc E5042F8B 		mov	r3, r3, asl ip
 203 00e0 E8BD8010 		mvn	lr, r3
 204              	.L16:
 205              		.loc 1 109 0
 206              		mvn	r2, #61440
 207 00e4 E3A030FF 		ldr	r3, [r2, #-3983]
 208 00e8 E1A03C13 	.LVL13:
 209 00ec E1E0E003 		.loc 1 110 0
 210              		and	r3, r3, lr
 211              	.LVL14:
 212 00f0 E3E02A0F 		.loc 1 111 0
 213 00f4 E5123F8F 		orr	r3, r3, r1, asl ip
 214              	.LVL15:
 215              		.loc 1 112 0
 216 00f8 E003300E 		str	r3, [r2, #-3983]
 217              		ldmfd	sp!, {r4, pc}
 218              	.LFE8:
 220              		.align	2
 221              		.global	io_get_pwm
 223 0104 E8BD8010 	io_get_pwm:
 224              	.LFB9:
 225              		.loc 1 128 0
 226              		@ args = 0, pretend = 0, frame = 0
 227              		@ frame_needed = 0, uses_anonymous_args = 0
 228              		@ link register save eliminated.
 229              	.LVL16:
 230              		and	r0, r0, #255
 120:../lib/io_driver.c **** 	}
 121:../lib/io_driver.c **** //	set_cmsr(_cmsr);
 122:../lib/io_driver.c **** }
 123:../lib/io_driver.c **** 
 124:../lib/io_driver.c **** // ******************************************************************************
 125:../lib/io_driver.c **** // Set pwm value
 126:../lib/io_driver.c ****    unsigned char io_get_pwm(unsigned char port)
 127:../lib/io_driver.c **** // ******************************************************************************
 128:../lib/io_driver.c **** {
 231              	c 1 128 0
 232              		@ lr needed for prologue
 233              		.loc 1 135 0
 234              		mov	r2, #0
 235              		bhi	.L26
 236 0108 E20000FF 		.loc 1 142 0
 129:../lib/io_driver.c **** //	unsigned long _cmsr = get_cmsr();
 130:../lib/io_driver.c **** //	set_cmsr(_cmsr  | (1<<CMSR_IRQ) | (1<<CMSR_FIQ));
 131:../lib/io_driver.c **** 
 132:../lib/io_driver.c **** 	unsigned long temp = 0;
 133:../lib/io_driver.c **** 
 134:../lib/io_driver.c **** 	// value adjustment
 135:../lib/io_driver.c **** 	if(port > 7)
 237              	3, r0, #4
 238 010c E3500007 		.loc 1 138 0
 239              		cmp	r0, #3
 240              		.loc 1 142 0
 241              		and	r2, r3, #255
 242 0110 E3A02000 		.loc 1 138 0
 243 0114 8A00000A 		bls	.L31
 136:../lib/io_driver.c **** 		port = 0;
 137:../lib/io_driver.c **** 
 138:../lib/io_driver.c **** 	if(port < 4)
 139:../lib/io_driver.c **** 		temp = PWM0_CONF0; // get config register
 140:../lib/io_driver.c **** 	else{
 141:../lib/io_driver.c **** 		port = port-4;
 142:../lib/io_driver.c **** 		temp = PWM0_CONF1; // get config register
 244              	 142 0
 245 0118 E2403004 		mvn	r3, #61440
 246              		ldr	r0, [r3, #-3979]
 247 011c E3500003 	.LVL17:
 248              		mov	r2, r2, asl #3
 249 0120 E20320FF 		mov	r0, r0, lsr r2
 250              	.LVL18:
 251 0124 9A000005 		and	r0, r0, #255
 252              		.loc 1 149 0
 253 0128 E3E03A0F 		bx	lr
 254 012c E5130F8B 	.LVL19:
 255              	.L31:
 256 0130 E1A02182 		.loc 1 138 0
 257 0134 E1A00230 		mov	r2, r0, asl #3
 258              	.L26:
 259 0138 E20000FF 		.loc 1 139 0
 143:../lib/io_driver.c **** 	}
 144:../lib/io_driver.c **** 
 145:../lib/io_driver.c **** 	temp = temp >> (port*8); // only keep designated byte
 146:../lib/io_driver.c **** 
 147:../lib/io_driver.c **** //	set_cmsr(_cmsr);
 148:../lib/io_driver.c **** 	return (unsigned char)temp;
 149:../lib/io_driver.c **** }
 260              		ldr	r0, [r3, #-3983]
 261 013c E12FFF1E 	.LVL20:
 262              		.loc 1 142 0
 263              		mov	r0, r0, lsr r2
 264              	.LVL21:
 265 0140 E1A02180 		and	r0, r0, #255
 266              		.loc 1 149 0
 267              		bx	lr
 268 0144 E3E03A0F 	.LFE9:
 270              		.align	2
 271              		.global	io_uart0_read_byte
 273              	io_uart0_read_byte:
 274 0150 E20000FF 	.LFB10:
 275              		.loc 1 161 0
 276 0154 E12FFF1E 		@ args = 0, pretend = 0, frame = 0
 277              		@ frame_needed = 0, uses_anonymous_args = 0
 278              		@ link register save eliminated.
 279              		.loc 1 166 0
 280              		mvn	r2, #61440
 281              		ldr	r3, [r2, #-4067]
 282              		tst	r3, #2
 283              		mvn	r0, #0
 150:../lib/io_driver.c **** 
 151:../lib/io_driver.c **** 
 152:../lib/io_driver.c **** 
 153:../lib/io_driver.c **** // ################################################################################################
 154:../lib/io_driver.c **** // General Purpose UART "miniUART" (UART_0)
 155:../lib/io_driver.c **** // ################################################################################################
 156:../lib/io_driver.c **** 
 157:../lib/io_driver.c **** // ******************************************************************************
 158:../lib/io_driver.c **** // Read one byte via UART 0
 159:../lib/io_driver.c ****    int io_uart0_read_byte(void)
 160:../lib/io_driver.c **** // ******************************************************************************
 161:../lib/io_driver.c **** {
 284              	drne	r0, [r2, #-4071]
 285              		.loc 1 161 0
 286              		@ lr needed for prologue
 287              	.LVL23:
 162:../lib/io_driver.c **** //	unsigned long _cmsr = get_cmsr();
 163:../lib/io_driver.c **** //	set_cmsr(_cmsr  | (1<<CMSR_IRQ) | (1<<CMSR_FIQ));
 164:../lib/io_driver.c **** 
 165:../lib/io_driver.c **** 	int temp;
 166:../lib/io_driver.c **** 	if ((UART0_SREG & (1<<CUART_RXD)) != 0) // byte available?
 288              	c 1 173 0
 289 0158 E3E02A0F 		bx	lr
 290 015c E5123FE3 	.LFE10:
 292 0164 E3E00000 		.align	2
 293              		.global	io_uart0_send_byte
 167:../lib/io_driver.c **** 		temp = UART0_DATA;
 294              		io_uart0_send_byte, %function
 295 0168 15120FE7 	io_uart0_send_byte:
 296              	.LFB11:
 297              		.loc 1 179 0
 298              		@ args = 0, pretend = 0, frame = 0
 168:../lib/io_driver.c **** 	else
 169:../lib/io_driver.c **** 		temp = -1;
 170:../lib/io_driver.c **** 
 171:../lib/io_driver.c **** //	set_cmsr(_cmsr);
 172:../lib/io_driver.c **** 	return temp;
 173:../lib/io_driver.c **** }
 299              	ame_needed = 0, uses_anonymous_args = 0
 300 016c E12FFF1E 		@ link register save eliminated.
 301              	.LVL24:
 302              		@ lr needed for prologue
 303              		mvn	r2, #61440
 304              	.L39:
 305              		.loc 1 183 0
 306              		ldr	r3, [r2, #-4067]
 307              		tst	r3, #1
 174:../lib/io_driver.c **** 
 175:../lib/io_driver.c **** // ******************************************************************************
 176:../lib/io_driver.c **** // Write one byte via UART 0
 177:../lib/io_driver.c ****    int io_uart0_send_byte(int ch)
 178:../lib/io_driver.c **** // ******************************************************************************
 179:../lib/io_driver.c **** {
 308              	
 309              		.loc 1 184 0
 310              		and	r3, r0, #255
 311              		str	r3, [r2, #-4071]
 312              	.LVL25:
 313              		.loc 1 188 0
 314 0170 E3E02A0F 		bx	lr
 315              	.LFE11:
 180:../lib/io_driver.c **** //	unsigned long _cmsr = get_cmsr();
 181:../lib/io_driver.c **** //	set_cmsr(_cmsr  | (1<<CMSR_IRQ) | (1<<CMSR_FIQ));
 182:../lib/io_driver.c **** 
 183:../lib/io_driver.c **** 	while((UART0_SREG & (1<<CUART_TXB)) == 0); // uart busy?
 316              	io_uart0_send_byte, .-io_uart0_send_byte
 317 0174 E5123FE3 		.align	2
 318 0178 E3130001 		.global	io_spi0_config
 184:../lib/io_driver.c **** 	UART0_DATA = (ch & 0x000000FF);
 320              	pi0_config:
 321 0180 E20030FF 	.LFB12:
 322 0184 E5023FE7 		.loc 1 200 0
 323              		@ args = 0, pretend = 0, frame = 0
 185:../lib/io_driver.c **** 
 186:../lib/io_driver.c **** //	set_cmsr(_cmsr);
 187:../lib/io_driver.c **** 	return ch;
 188:../lib/io_driver.c **** }
 324              	rame_needed = 0, uses_anonymous_args = 0
 325 0188 E12FFF1E 		@ link register save eliminated.
 326              	.LVL26:
 327              		and	r0, r0, #255
 328              		.loc 1 206 0
 329              		cmp	r0, #1
 330              		.loc 1 209 0
 331              		orr	r2, r1, #1024
 332              		.loc 1 207 0
 189:../lib/io_driver.c **** 
 190:../lib/io_driver.c **** 
 191:../lib/io_driver.c **** 
 192:../lib/io_driver.c **** // ################################################################################################
 193:../lib/io_driver.c **** // Serial Peripherial Interface (SPI_CONTROLLER_0)
 194:../lib/io_driver.c **** // ################################################################################################
 195:../lib/io_driver.c **** 
 196:../lib/io_driver.c **** // ******************************************************************************
 197:../lib/io_driver.c **** // Configure SPI 0
 198:../lib/io_driver.c ****    void io_spi0_config(unsigned char auto_cs, unsigned long data_size)
 199:../lib/io_driver.c **** // ******************************************************************************
 200:../lib/io_driver.c **** {
 333              	, #61440
 334              		orr	r1, r1, #9216
 335              	.LVL27:
 336              		.loc 1 209 0
 337              		mvnne	r3, #61440
 338 018c E20000FF 		.loc 1 200 0
 201:../lib/io_driver.c **** //	unsigned long _cmsr = get_cmsr();
 202:../lib/io_driver.c **** //	set_cmsr(_cmsr  | (1<<CMSR_IRQ) | (1<<CMSR_FIQ));
 203:../lib/io_driver.c **** 	// devices update their serial input on a rising edge of sclk,
 204:../lib/io_driver.c **** 	// so we need to update the mosi output of the core before
 205:../lib/io_driver.c **** 	// -> at the falling edge of sclk = set SPI_TX_NEG
 206:../lib/io_driver.c **** 	if(auto_cs == 1)
 339              	needed for prologue
 340 0190 E3500001 		.loc 1 207 0
 207:../lib/io_driver.c **** 		SPI0_CONF = (1<<SPI_ACS) | (1<<SPI_TX_NEG) | data_size; // auto assert cs
 208:../lib/io_driver.c **** 	else
 209:../lib/io_driver.c **** 		SPI0_CONF = (0<<SPI_ACS) | (1<<SPI_TX_NEG) | data_size; // manual assert cs
 341              	treq	r1, [r3, #-4047]
 342 0194 E3812B01 		.loc 1 209 0
 343              		strne	r2, [r3, #-4047]
 344 0198 03E03A0F 		bx	lr
 345 019c E3811B09 	.LFE12:
 347              		.align	2
 348 01a0 13E03A0F 		.global	io_spi0_speed
 350              	io_spi0_speed:
 351              	.LFB13:
 352 01a4 05031FCF 		.loc 1 217 0
 353              		@ args = 0, pretend = 0, frame = 0
 354 01a8 15032FCF 		@ frame_needed = 0, uses_anonymous_args = 0
 355 01ac E12FFF1E 		@ link register save eliminated.
 356              	.LVL28:
 357              		.loc 1 221 0
 358              		mvn	r3, #61440
 359              		.loc 1 217 0
 360              		@ lr needed for prologue
 361              		.loc 1 221 0
 362              		str	r0, [r3, #-4043]
 210:../lib/io_driver.c **** //	set_cmsr(_cmsr);
 211:../lib/io_driver.c **** }
 212:../lib/io_driver.c **** 
 213:../lib/io_driver.c **** // ******************************************************************************
 214:../lib/io_driver.c **** // Configure SPI 0 CLK frequency -> (sys_clk/(spi_clk*2))-1
 215:../lib/io_driver.c ****    void io_spi0_speed(unsigned long clk_divider)
 216:../lib/io_driver.c **** // ******************************************************************************
 217:../lib/io_driver.c **** {
 363              	LFE13:
 365              		.align	2
 366              		.global	io_spi0_trans
 218:../lib/io_driver.c **** //	unsigned long _cmsr = get_cmsr();
 219:../lib/io_driver.c **** //	set_cmsr(_cmsr  | (1<<CMSR_IRQ) | (1<<CMSR_FIQ));
 220:../lib/io_driver.c **** 
 221:../lib/io_driver.c **** 		SPI0_PRSC = clk_divider; // (sys_clk/(spi_clk*2))-1;
 368              	i0_trans:
 369 01b0 E3E03A0F 	.LFB14:
 370              		.loc 1 230 0
 371              		@ args = 0, pretend = 0, frame = 0
 372              		@ frame_needed = 0, uses_anonymous_args = 0
 373 01b4 E5030FCB 		@ link register save eliminated.
 222:../lib/io_driver.c **** 
 223:../lib/io_driver.c **** //	set_cmsr(_cmsr);
 224:../lib/io_driver.c **** }
 374              	:
 375 01b8 E12FFF1E 		@ lr needed for prologue
 376              		mvn	r2, #61440
 377              	.L53:
 378              		.loc 1 235 0
 379              		ldr	r3, [r2, #-4047]
 380              		tst	r3, #256
 381              		bne	.L53
 382              		.loc 1 236 0
 225:../lib/io_driver.c **** 
 226:../lib/io_driver.c **** // ******************************************************************************
 227:../lib/io_driver.c **** // Sends/receives max 32 bits via SPI, CS and config must be done outside
 228:../lib/io_driver.c ****    unsigned long io_spi0_trans(unsigned long data)
 229:../lib/io_driver.c **** // ******************************************************************************
 230:../lib/io_driver.c **** {
 383              	[r2, #-4031]
 384              		.loc 1 237 0
 385              		ldr	r3, [r2, #-4047]
 386              		orr	r3, r3, #256
 387              		str	r3, [r2, #-4047]
 388              		mvn	r2, #61440
 389 01bc E3E02A0F 	.L55:
 390              		.loc 1 238 0
 231:../lib/io_driver.c **** //	unsigned long _cmsr = get_cmsr();
 232:../lib/io_driver.c **** //	set_cmsr(_cmsr  | (1<<CMSR_IRQ) | (1<<CMSR_FIQ));
 233:../lib/io_driver.c **** 
 234:../lib/io_driver.c **** 	// spi transmission
 235:../lib/io_driver.c **** 	while((SPI0_CONF & (1<<SPI_BUSY)) != 0); // wait for prev tx to finish
 391              	 [r2, #-4047]
 392 01c0 E5123FCF 		tst	r3, #256
 393 01c4 E3130C01 		bne	.L55
 394 01c8 1AFFFFFC 		.loc 1 239 0
 236:../lib/io_driver.c **** 	SPI0_DAT0 = data;
 395              		r0, [r2, #-4031]
 396 01cc E5020FBF 	.LVL30:
 237:../lib/io_driver.c **** 	SPI0_CONF = SPI0_CONF | (1<<SPI_BUSY); // start transmitter
 397              	VL31:
 398 01d0 E5123FCF 		.loc 1 243 0
 399 01d4 E3833C01 		bx	lr
 400 01d8 E5023FCF 	.LFE14:
 402              		.align	2
 238:../lib/io_driver.c **** 	while((SPI0_CONF & (1<<SPI_BUSY)) != 0); // wait for rx to finish
 403              	al	io_spi0_enable
 405 01e4 E3130C01 	io_spi0_enable:
 406 01e8 1AFFFFFC 	.LFB15:
 239:../lib/io_driver.c **** 	unsigned long temp = SPI0_DAT0;
 407              	c 1 249 0
 408 01ec E5120FBF 		@ args = 0, pretend = 0, frame = 0
 409              		@ frame_needed = 0, uses_anonymous_args = 0
 410              		@ link register save eliminated.
 240:../lib/io_driver.c **** 
 241:../lib/io_driver.c **** //	set_cmsr(_cmsr);
 242:../lib/io_driver.c **** 	return temp;
 243:../lib/io_driver.c **** }
 411              	32:
 412 01f0 E12FFF1E 		.loc 1 253 0
 413              		mvn	r1, #61440
 414              		ldr	r3, [r1, #-4039]
 415              		.loc 1 249 0
 416              		and	r0, r0, #255
 417              		.loc 1 253 0
 418              		mov	r2, #1
 419              		orr	r3, r3, r2, asl r0
 244:../lib/io_driver.c **** 
 245:../lib/io_driver.c **** // ******************************************************************************
 246:../lib/io_driver.c **** // Controls the CS of SPI0, enables a connected CS (turns it LOW)
 247:../lib/io_driver.c ****    void io_spi0_enable(unsigned char device)
 248:../lib/io_driver.c **** // ******************************************************************************
 249:../lib/io_driver.c **** {
 420              	49 0
 421              		@ lr needed for prologue
 422              		.loc 1 253 0
 423              		str	r3, [r1, #-4039]
 424              		.loc 1 256 0
 250:../lib/io_driver.c **** //	unsigned long _cmsr = get_cmsr();
 251:../lib/io_driver.c **** //	set_cmsr(_cmsr  | (1<<CMSR_IRQ) | (1<<CMSR_FIQ));
 252:../lib/io_driver.c **** 
 253:../lib/io_driver.c **** 		SPI0_SCSR = SPI0_SCSR | (1<<device);
 425              	r
 426 01f4 E3E01A0F 	.LFE15:
 428              		.align	2
 429 01fc E20000FF 		.global	io_spi0_disable
 431 0200 E3A02001 	io_spi0_disable:
 432 0204 E1833012 	.LFB16:
 433              		.loc 1 262 0
 434              		@ args = 0, pretend = 0, frame = 0
 435              		@ frame_needed = 0, uses_anonymous_args = 0
 436 0208 E5013FC7 		@ link register save eliminated.
 254:../lib/io_driver.c **** 
 255:../lib/io_driver.c **** //	set_cmsr(_cmsr);
 256:../lib/io_driver.c **** }
 437              		r0, r0, #255
 438 020c E12FFF1E 		.loc 1 266 0
 439              		mov	r2, #1
 440              		mov	r2, r2, asl r0
 441              		mvn	r1, #61440
 442              		ldr	r3, [r1, #-4039]
 443              		mvn	r2, r2
 444              		and	r3, r3, r2
 445              		.loc 1 262 0
 257:../lib/io_driver.c **** 
 258:../lib/io_driver.c **** // ******************************************************************************
 259:../lib/io_driver.c **** // Controls the CS of SPI0, disables a connected CS (turns it HIGH)
 260:../lib/io_driver.c ****    void io_spi0_disable(unsigned char device)
 261:../lib/io_driver.c **** // ******************************************************************************
 262:../lib/io_driver.c **** {
 446              	ded for prologue
 447              		.loc 1 266 0
 448              		str	r3, [r1, #-4039]
 449              		.loc 1 269 0
 450              		bx	lr
 451 0210 E20000FF 	.LFE16:
 263:../lib/io_driver.c **** //	unsigned long _cmsr = get_cmsr();
 264:../lib/io_driver.c **** //	set_cmsr(_cmsr  | (1<<CMSR_IRQ) | (1<<CMSR_FIQ));
 265:../lib/io_driver.c **** 
 266:../lib/io_driver.c **** 		SPI0_SCSR = SPI0_SCSR & ~(1<<device);
 452              		io_spi0_disable, .-io_spi0_disable
 453 0214 E3A02001 		.align	2
 454 0218 E1A02012 		.global	io_i2c0_speed
 456 0220 E5113FC7 	io_i2c0_speed:
 457 0224 E1E02002 	.LFB17:
 458 0228 E0033002 		.loc 1 282 0
 459              		@ args = 0, pretend = 0, frame = 0
 460              		@ frame_needed = 0, uses_anonymous_args = 0
 461              		@ link register save eliminated.
 462 022c E5013FC7 	.LVL34:
 267:../lib/io_driver.c **** 
 268:../lib/io_driver.c **** //	set_cmsr(_cmsr);
 269:../lib/io_driver.c **** }
 463              	 0
 464 0230 E12FFF1E 		mvn	r2, #61440
 465              		ldr	r3, [r2, #-3991]
 466              		.loc 1 287 0
 467              		mov	r1, r0, lsr #8
 468              		.loc 1 285 0
 469              		bic	r3, r3, #128
 470              		str	r3, [r2, #-3991]
 471              		.loc 1 286 0
 270:../lib/io_driver.c **** 
 271:../lib/io_driver.c **** 
 272:../lib/io_driver.c **** 
 273:../lib/io_driver.c **** 
 274:../lib/io_driver.c **** // ################################################################################################
 275:../lib/io_driver.c **** // Inter Intergrated Circuit Interface (I²C_CONTROLLER_0)
 276:../lib/io_driver.c **** // ################################################################################################
 277:../lib/io_driver.c **** 
 278:../lib/io_driver.c **** // ******************************************************************************
 279:../lib/io_driver.c **** // Configure SPI 0 CLK frequency -> (sys_clk/(5*i2c_clock)-1
 280:../lib/io_driver.c ****    void io_i2c0_speed(unsigned long clk_divider)
 281:../lib/io_driver.c **** // ******************************************************************************
 282:../lib/io_driver.c **** {
 472              	[r2, #-3999]
 473              		.loc 1 287 0
 474              		str	r1, [r2, #-3995]
 475              		.loc 1 288 0
 476              		ldr	r3, [r2, #-3991]
 283:../lib/io_driver.c **** //	unsigned long _cmsr = get_cmsr();
 284:../lib/io_driver.c **** //	set_cmsr(_cmsr  | (1<<CMSR_IRQ) | (1<<CMSR_FIQ));
 285:../lib/io_driver.c **** 		I2C0_CTRL = I2C0_CTRL & ~(1<<I2C_EN); // disable i2c core
 477              	r3, r3, #128
 478 0234 E3E02A0F 		.loc 1 282 0
 479 0238 E5123F97 		@ lr needed for prologue
 286:../lib/io_driver.c **** 		I2C0_PRLO = clk_divider;
 287:../lib/io_driver.c **** 		I2C0_PRHI = clk_divider >> 8;
 480              	oc 1 288 0
 481 023c E1A01420 		str	r3, [r2, #-3991]
 482              		.loc 1 290 0
 483 0240 E3C33080 		bx	lr
 484 0244 E5023F97 	.LFE17:
 486 0248 E5020F9F 		.align	2
 487              		.global	io_i2c0_byte_transfer
 288:../lib/io_driver.c **** 		I2C0_CTRL = I2C0_CTRL | (1<<I2C_EN); // enable i2c core
 489              	yte_transfer:
 490 0250 E5123F97 	.LFB18:
 491 0254 E3833080 		.loc 1 300 0
 492              		@ args = 4, pretend = 0, frame = 0
 493              		@ frame_needed = 0, uses_anonymous_args = 0
 494              	.LVL35:
 495 0258 E5023F97 		stmfd	sp!, {r4, r5, lr}
 289:../lib/io_driver.c **** //	set_cmsr(_cmsr);
 290:../lib/io_driver.c **** }
 496              	
 497 025c E12FFF1E 		.loc 1 306 0
 498              		mov	ip, #144
 499              		.loc 1 305 0
 500              		and	r4, r1, #254
 501              		mvn	lr, #61440
 502              	.LVL36:
 503              		.loc 1 300 0
 504              		ldrb	r5, [sp, #15]	@ zero_extendqisi2
 291:../lib/io_driver.c **** 
 292:../lib/io_driver.c **** // ******************************************************************************
 293:../lib/io_driver.c **** // Read/write byte from/to I²C slave, max 2 address bytes
 294:../lib/io_driver.c ****    int io_i2c0_byte_transfer(unsigned char rw,        // 'r' read / 'w' write cycle
 295:../lib/io_driver.c ****                              unsigned char id,        // device ID
 296:../lib/io_driver.c **** 							 unsigned long data_adr,  // data address
 297:../lib/io_driver.c **** 							 unsigned char adr_bytes, // number of adr bytes
 298:../lib/io_driver.c **** 							 unsigned char data)      // data byte
 299:../lib/io_driver.c **** // ******************************************************************************
 300:../lib/io_driver.c **** {
 505              	 r0, #255
 506              		.loc 1 305 0
 507              		str	r4, [lr, #-3987]
 508              		.loc 1 300 0
 509 0260 E92D4030 		and	r1, r1, #255
 510              		.loc 1 306 0
 301:../lib/io_driver.c **** //	unsigned long _cmsr = get_cmsr();
 302:../lib/io_driver.c **** //	set_cmsr(_cmsr  | (1<<CMSR_IRQ) | (1<<CMSR_FIQ));
 303:../lib/io_driver.c **** 
 304:../lib/io_driver.c **** 	// transfer slave identification address
 305:../lib/io_driver.c **** 	I2C0_DATA = id & 0xFE;                  // device id and write
 306:../lib/io_driver.c **** 	I2C0_CMD = (1<<I2C_STA) | (1<<I2C_WR);  // start condition and write cycle
 511              	p, [lr, #-4015]
 512 0264 E3A0C090 		.loc 1 300 0
 513              		mov	r4, r2
 514 0268 E20140FE 		and	ip, r3, #255
 515 026c E3E0EA0F 	.LVL37:
 516              	.L69:
 517              		.loc 1 307 0
 518 0270 E5DD500F 		ldr	r3, [lr, #-4015]
 519 0274 E20000FF 		tst	r3, #2
 520              		bne	.L69
 521 0278 E50E4F93 		.loc 1 308 0
 522              		ldr	r3, [lr, #-4015]
 523 027c E20110FF 		tst	r3, #128
 524              		mvnne	r0, #0
 525 0280 E50ECFAF 	.LVL38:
 526              		ldmnefd	sp!, {r4, r5, pc}
 527 0284 E1A04002 	.L80:
 528 0288 E203C0FF 		.loc 1 314 0
 529              		cmp	ip, #0
 530              		beq	.L109
 307:../lib/io_driver.c **** 	while((I2C0_STAT & (1<<I2C_TIP)) != 0); // wait for transfer to finish
 531              	3, ip, #1
 532 028c E51E3FAF 		and	ip, r3, #255
 533 0290 E3130002 		.loc 1 316 0
 534 0294 1AFFFFFC 		cmp	ip, #1
 308:../lib/io_driver.c **** 	if((I2C0_STAT & (1<<I2C_RXACK)) != 0){  // ack received?
 535              	c 1 317 0
 536 0298 E51E3FAF 		moveq	r2, r4, lsr #8
 537 029c E3130080 		mvneq	r3, #61440
 538 02a0 13E00000 		.loc 1 319 0
 539              		mvnne	r3, #61440
 540 02a4 18BD8030 		.loc 1 317 0
 541              		streq	r2, [r3, #-3987]
 309:../lib/io_driver.c **** //		set_cmsr(_cmsr);
 310:../lib/io_driver.c **** 		return -1;
 311:../lib/io_driver.c **** 	}
 312:../lib/io_driver.c **** 
 313:../lib/io_driver.c **** 	// transfer data address
 314:../lib/io_driver.c **** 	while(adr_bytes != 0){
 542              	 319 0
 543 02a8 E35C0000 		strne	r4, [r3, #-3987]
 544 02ac 0A000012 		.loc 1 320 0
 315:../lib/io_driver.c **** 		adr_bytes--;
 545              	n	r2, #61440
 546 02b0 E24C3001 		mov	r3, #16
 547 02b4 E203C0FF 		str	r3, [r2, #-4015]
 316:../lib/io_driver.c **** 		if(adr_bytes == 1)
 548              	8:
 549 02b8 E35C0001 		.loc 1 321 0
 317:../lib/io_driver.c **** 			I2C0_DATA = data_adr >> 8;          // high byte
 550              	dr	r3, [r2, #-4015]
 551 02bc 01A02424 		tst	r3, #2
 552 02c0 03E03A0F 		bne	.L78
 318:../lib/io_driver.c **** 		else
 319:../lib/io_driver.c **** 			I2C0_DATA = data_adr;               // low byte
 553              	oc 1 322 0
 554 02c4 13E03A0F 		ldr	r3, [r2, #-4015]
 555              		tst	r3, #128
 556 02c8 05032F93 		beq	.L80
 557              		mvn	r0, #1
 558 02cc 15034F93 		ldmfd	sp!, {r4, r5, pc}
 320:../lib/io_driver.c **** 		I2C0_CMD = (1<<I2C_WR);                 // write cycle
 559              	:
 560 02d0 E3E02A0F 	.L109:
 561 02d4 E3A03010 	.LVL40:
 562 02d8 E5023FAF 		.loc 1 328 0
 563              		cmp	r0, #119
 321:../lib/io_driver.c **** 		while((I2C0_STAT & (1<<I2C_TIP)) != 0); // wait for transfer to finish
 564              	.L83
 565 02dc E5123FAF 		.loc 1 330 0
 566 02e0 E3130002 		mvn	r3, #61440
 567 02e4 1AFFFFFC 		.loc 1 331 0
 322:../lib/io_driver.c **** 		if((I2C0_STAT & (1<<I2C_RXACK)) != 0){  // ack received?
 568              		r2, #80
 569 02e8 E5123FAF 		.loc 1 330 0
 570 02ec E3130080 		str	r5, [r3, #-3987]
 571 02f0 0AFFFFEC 		.loc 1 331 0
 572 02f4 E3E00001 		str	r2, [r3, #-4015]
 573 02f8 E8BD8030 		mov	r2, r3
 574              	.L85:
 575              		.loc 1 332 0
 576              		ldr	r3, [r2, #-4015]
 323:../lib/io_driver.c **** //			set_cmsr(_cmsr);
 324:../lib/io_driver.c **** 			return -2;
 325:../lib/io_driver.c **** 		}
 326:../lib/io_driver.c **** 	}
 327:../lib/io_driver.c **** 
 328:../lib/io_driver.c **** 	if(rw == 'w'){
 577              	#2
 578 02fc E3500077 		bne	.L85
 579 0300 1A00000C 		.loc 1 333 0
 329:../lib/io_driver.c **** 		// write adressed byte
 330:../lib/io_driver.c **** 		I2C0_DATA = data;                       // send data
 580              	r	r3, [r2, #-4015]
 581 0304 E3E03A0F 		ands	r0, r3, #128
 331:../lib/io_driver.c **** 		I2C0_CMD = (1<<I2C_STO) | (1<<I2C_WR);  // stop condition and write cycle
 582              	VL41:
 583 0308 E3A02050 		ldmeqfd	sp!, {r4, r5, pc}
 584              	.L87:
 585 030c E5035F93 		.loc 1 355 0
 586              		mvn	r0, #2
 587 0310 E5032FAF 		.loc 1 360 0
 588 0314 E1A02003 		ldmfd	sp!, {r4, r5, pc}
 589              	.LVL42:
 332:../lib/io_driver.c **** 		while((I2C0_STAT & (1<<I2C_TIP)) != 0); // wait for transfer to finish
 590              	loc 1 343 0
 591 0318 E5123FAF 		cmp	r0, #114
 592 031c E3130002 		mvnne	r0, #3
 593 0320 1AFFFFFC 	.LVL43:
 333:../lib/io_driver.c **** 		if((I2C0_STAT & (1<<I2C_RXACK)) != 0){  // ack received?
 594              	nefd	sp!, {r4, r5, pc}
 595 0324 E5123FAF 		.loc 1 345 0
 596 0328 E2130080 		orr	r3, r1, #1
 597              		mvn	r2, #61440
 598 032c 08BD8030 		.loc 1 346 0
 599              		mov	r1, #144
 334:../lib/io_driver.c **** //			set_cmsr(_cmsr);
 335:../lib/io_driver.c **** 			return -3;
 336:../lib/io_driver.c **** 		}
 337:../lib/io_driver.c **** 		else{
 338:../lib/io_driver.c **** //			set_cmsr(_cmsr);
 339:../lib/io_driver.c **** 			return 0;
 340:../lib/io_driver.c **** 		}
 341:../lib/io_driver.c **** 	}
 342:../lib/io_driver.c **** 
 343:../lib/io_driver.c **** 	if(rw == 'r'){
 344:../lib/io_driver.c **** 		// re-send control byte - this time with read-bit
 345:../lib/io_driver.c **** 		I2C0_DATA = id | 0x01;                  // device id and READ
 346:../lib/io_driver.c **** 		I2C0_CMD = (1<<I2C_STA) | (1<<I2C_WR);  // start condition and write cycle
 347:../lib/io_driver.c **** 		while((I2C0_STAT & (1<<I2C_TIP)) != 0); // wait for transfer to finish
 348:../lib/io_driver.c **** 		if((I2C0_STAT & (1<<I2C_RXACK)) != 0){  // ack received?
 349:../lib/io_driver.c **** //			set_cmsr(_cmsr);
 350:../lib/io_driver.c **** 			return -3;
 351:../lib/io_driver.c **** 		}
 352:../lib/io_driver.c **** 		// read adressed byte
 353:../lib/io_driver.c **** 		I2C0_CMD = (1<<I2C_STO) | (1<<I2C_RD) | (1<<I2C_ACK);
 354:../lib/io_driver.c **** 		while((I2C0_STAT & (1<<I2C_TIP)) != 0); // wait for transfer to finish
 355:../lib/io_driver.c **** 		return I2C0_DATA;
 600              	:
 601 0330 E3E00002 		.loc 1 345 0
 356:../lib/io_driver.c **** 	}
 357:../lib/io_driver.c **** 
 358:../lib/io_driver.c **** //	set_cmsr(_cmsr);
 359:../lib/io_driver.c **** 	return -4;
 360:../lib/io_driver.c **** }
 602              	tr	r3, [r2, #-3987]
 603 0334 E8BD8030 		.loc 1 346 0
 604              		str	r1, [r2, #-4015]
 605              	.L91:
 606              		.loc 1 347 0
 607 0338 E3500072 		ldr	r3, [r2, #-4015]
 608 033c 13E00003 		tst	r3, #2
 609              		bne	.L91
 610 0340 18BD8030 		.loc 1 348 0
 611              		ldr	r3, [r2, #-4015]
 612 0344 E3813001 		tst	r3, #128
 613 0348 E3E02A0F 		bne	.L87
 614              		.loc 1 353 0
 615 034c E3A01090 		mov	r3, #104
 616              		str	r3, [r2, #-4015]
 617              		mvn	r0, #61440
 618 0350 E5023F93 	.L94:
 619              		.loc 1 354 0
 620 0354 E5021FAF 		ldr	r3, [r0, #-4015]
 621              		tst	r3, #2
 622              		bne	.L94
 623 0358 E5123FAF 		.loc 1 355 0
 624 035c E3130002 		ldr	r0, [r0, #-3987]
 625 0360 1AFFFFFC 		ldmfd	sp!, {r4, r5, pc}
 626              	.LFE18:
 628 0368 E3130080 		.align	2
 629 036c 1AFFFFEF 		.global	get_syscpreg
 631 0370 E3A03068 	get_syscpreg:
 632 0374 E5023FAF 	.LFB19:
 633 0378 E3E00A0F 		.loc 1 373 0
 634              		@ args = 0, pretend = 0, frame = 0
 635              		@ frame_needed = 0, uses_anonymous_args = 0
 636 037c E5103FAF 		@ link register save eliminated.
 637 0380 E3130002 	.LVL45:
 638 0384 1AFFFFFC 		and	r0, r0, #255
 639              		@ lr needed for prologue
 640 0388 E5100F93 		.loc 1 375 0
 641 038c E8BD8030 		cmp	r0, #15
 642              		ldrls	pc, [pc, r0, asl #2]
 643              		b	.L111
 644              		.p2align 2
 645              	.L128:
 646              		.word	.L112
 647              		.word	.L113
 648              		.word	.L114
 361:../lib/io_driver.c **** 
 362:../lib/io_driver.c **** 
 363:../lib/io_driver.c **** 
 364:../lib/io_driver.c **** 
 365:../lib/io_driver.c **** // ################################################################################################
 366:../lib/io_driver.c **** // System
 367:../lib/io_driver.c **** // ################################################################################################
 368:../lib/io_driver.c **** 
 369:../lib/io_driver.c **** // ******************************************************************************
 370:../lib/io_driver.c **** // read system coprocessor register x
 371:../lib/io_driver.c ****    unsigned long get_syscpreg(unsigned char index)
 372:../lib/io_driver.c **** // ******************************************************************************
 373:../lib/io_driver.c **** {
 649              	L118
 650              		.word	.L119
 651              		.word	.L120
 652              		.word	.L121
 653              		.word	.L122
 654 0390 E20000FF 		.word	.L123
 655              		.word	.L124
 374:../lib/io_driver.c **** 	unsigned long _cp_val;
 375:../lib/io_driver.c **** 	switch(index){
 656              	.L125
 657 0394 E350000F 		.word	.L126
 658 0398 979FF100 		.word	.L127
 659 039c EA00000F 	.L111:
 660              		mov	r0, #0
 661              	.LVL46:
 662 03a0 00000460 		bx	lr
 663 03a4 00000458 	.LVL47:
 664 03a8 00000450 	.L127:
 665 03ac 00000448 		.loc 1 391 0
 666 03b0 00000440 		mrc p15,0,r0,c15,c15
 667 03b4 00000438 	.LVL48:
 668 03b8 00000430 	.LVL49:
 669 03bc 00000428 		.loc 1 395 0
 670 03c0 00000420 		bx	lr
 671 03c4 00000418 	.LVL50:
 672 03c8 00000410 	.L126:
 673 03cc 00000408 		.loc 1 390 0
 674 03d0 00000400 		mrc p15,0,r0,c14,c14
 675 03d4 000003F8 	.LVL51:
 676 03d8 000003F0 		bx	lr
 677 03dc 000003E8 	.LVL52:
 678              	.L125:
 679 03e0 E3A00000 		.loc 1 389 0
 680              		mrc p15,0,r0,c13,c13
 681 03e4 E12FFF1E 	.LVL53:
 682              		bx	lr
 683              	.LVL54:
 376:../lib/io_driver.c **** 		case ID_REG_0:   asm volatile ("mrc p15,0,%0, c0, c0" : "=r" (_cp_val) : /* no inputs */  ); brea
 377:../lib/io_driver.c **** 		case ID_REG_1:   asm volatile ("mrc p15,0,%0, c1, c1" : "=r" (_cp_val) : /* no inputs */  ); brea
 378:../lib/io_driver.c **** 		case ID_REG_2:   asm volatile ("mrc p15,0,%0, c2, c2" : "=r" (_cp_val) : /* no inputs */  ); brea
 379:../lib/io_driver.c **** 		case 3:          asm volatile ("mrc p15,0,%0, c3, c3" : "=r" (_cp_val) : /* no inputs */  ); brea
 380:../lib/io_driver.c **** 		case 4:          asm volatile ("mrc p15,0,%0, c4, c4" : "=r" (_cp_val) : /* no inputs */  ); brea
 381:../lib/io_driver.c **** 		case 5:          asm volatile ("mrc p15,0,%0, c5, c5" : "=r" (_cp_val) : /* no inputs */  ); brea
 382:../lib/io_driver.c **** 		case SYS_CTRL_0: asm volatile ("mrc p15,0,%0, c6, c6" : "=r" (_cp_val) : /* no inputs */  ); brea
 383:../lib/io_driver.c **** 		case 7:          asm volatile ("mrc p15,0,%0, c7, c7" : "=r" (_cp_val) : /* no inputs */  ); brea
 384:../lib/io_driver.c **** 		case CSTAT:      asm volatile ("mrc p15,0,%0, c8, c8" : "=r" (_cp_val) : /* no inputs */  ); brea
 385:../lib/io_driver.c **** 		case ADR_FB:     asm volatile ("mrc p15,0,%0, c9, c9" : "=r" (_cp_val) : /* no inputs */  ); brea
 386:../lib/io_driver.c **** 		case 10:         asm volatile ("mrc p15,0,%0,c10,c10" : "=r" (_cp_val) : /* no inputs */  ); brea
 387:../lib/io_driver.c **** 		case LFSR_POLY:  asm volatile ("mrc p15,0,%0,c11,c11" : "=r" (_cp_val) : /* no inputs */  ); brea
 388:../lib/io_driver.c **** 		case LFSR_DATA:  asm volatile ("mrc p15,0,%0,c12,c12" : "=r" (_cp_val) : /* no inputs */  ); brea
 389:../lib/io_driver.c **** 		case SYS_IO:     asm volatile ("mrc p15,0,%0,c13,c13" : "=r" (_cp_val) : /* no inputs */  ); brea
 390:../lib/io_driver.c **** 		case 14:         asm volatile ("mrc p15,0,%0,c14,c14" : "=r" (_cp_val) : /* no inputs */  ); brea
 391:../lib/io_driver.c **** 		case 15:         asm volatile ("mrc p15,0,%0,c15,c15" : "=r" (_cp_val) : /* no inputs */  ); brea
 684              	5,0,r0,c12,c12
 685 03e8 EE1F0F1F 	.LVL55:
 686              		bx	lr
 687              	.LVL56:
 392:../lib/io_driver.c **** 		default:         _cp_val = 0; break;
 393:../lib/io_driver.c **** 	}
 394:../lib/io_driver.c **** 	return _cp_val;
 395:../lib/io_driver.c **** }
 688              	3:
 689 03ec E12FFF1E 		.loc 1 387 0
 690              		mrc p15,0,r0,c11,c11
 691              	.LVL57:
 692              		bx	lr
 693 03f0 EE1E0F1E 	.LVL58:
 694              	.L122:
 695 03f4 E12FFF1E 		.loc 1 386 0
 696              		mrc p15,0,r0,c10,c10
 697              	.LVL59:
 698              		bx	lr
 699 03f8 EE1D0F1D 	.LVL60:
 700              	.L121:
 701 03fc E12FFF1E 		.loc 1 385 0
 702              		mrc p15,0,r0, c9, c9
 703              	.LVL61:
 704              		bx	lr
 705 0400 EE1C0F1C 	.LVL62:
 706              	.L120:
 707 0404 E12FFF1E 		.loc 1 384 0
 708              		mrc p15,0,r0, c8, c8
 709              	.LVL63:
 710              		bx	lr
 711 0408 EE1B0F1B 	.LVL64:
 712              	.L119:
 713 040c E12FFF1E 		.loc 1 383 0
 714              		mrc p15,0,r0, c7, c7
 715              	.LVL65:
 716              		bx	lr
 717 0410 EE1A0F1A 	.LVL66:
 718              	.L118:
 719 0414 E12FFF1E 		.loc 1 382 0
 720              		mrc p15,0,r0, c6, c6
 721              	.LVL67:
 722              		bx	lr
 723 0418 EE190F19 	.LVL68:
 724              	.L117:
 725 041c E12FFF1E 		.loc 1 381 0
 726              		mrc p15,0,r0, c5, c5
 727              	.LVL69:
 728              		bx	lr
 729 0420 EE180F18 	.LVL70:
 730              	.L116:
 731 0424 E12FFF1E 		.loc 1 380 0
 732              		mrc p15,0,r0, c4, c4
 733              	.LVL71:
 734              		bx	lr
 735 0428 EE170F17 	.LVL72:
 736              	.L115:
 737 042c E12FFF1E 		.loc 1 379 0
 738              		mrc p15,0,r0, c3, c3
 739              	.LVL73:
 740              		bx	lr
 741 0430 EE160F16 	.LVL74:
 742              	.L114:
 743 0434 E12FFF1E 		.loc 1 378 0
 744              		mrc p15,0,r0, c2, c2
 745              	.LVL75:
 746              		bx	lr
 747 0438 EE150F15 	.LVL76:
 748              	.L113:
 749 043c E12FFF1E 		.loc 1 377 0
 750              		mrc p15,0,r0, c1, c1
 751              	.LVL77:
 752              		bx	lr
 753 0440 EE140F14 	.LVL78:
 754              	.L112:
 755 0444 E12FFF1E 		.loc 1 376 0
 756              		mrc p15,0,r0, c0, c0
 757              	.LVL79:
 758              		bx	lr
 759 0448 EE130F13 	.LFE19:
 761 044c E12FFF1E 		.align	2
 762              		.global	set_syscpreg
 764              	set_syscpreg:
 765 0450 EE120F12 	.LFB20:
 766              		.loc 1 401 0
 767 0454 E12FFF1E 		@ args = 0, pretend = 0, frame = 0
 768              		@ frame_needed = 0, uses_anonymous_args = 0
 769              		@ link register save eliminated.
 770              	.LVL80:
 771 0458 EE110F11 		and	r1, r1, #255
 772              		.loc 1 402 0
 773 045c E12FFF1E 		sub	r1, r1, #6
 774              	.LVL81:
 775              		.loc 1 401 0
 776              		@ lr needed for prologue
 777 0460 EE100F10 		.loc 1 402 0
 778              		cmp	r1, #7
 779 0464 E12FFF1E 		ldrls	pc, [pc, r1, asl #2]
 780              		b	.L138
 781              		.p2align 2
 782              	.L137:
 783              		.word	.L133
 784              		.word	.L138
 785              		.word	.L138
 786              		.word	.L138
 396:../lib/io_driver.c **** 
 397:../lib/io_driver.c **** // ******************************************************************************
 398:../lib/io_driver.c **** // write system coprocessor register x
 399:../lib/io_driver.c ****    void set_syscpreg(unsigned long _cp_val, unsigned char index)
 400:../lib/io_driver.c **** // ******************************************************************************
 401:../lib/io_driver.c **** {
 787              	138:
 788              		bx	lr
 789              	.L133:
 790              		.loc 1 409 0
 791              		mcr p15,0,r0, c6, c6,0
 792 0468 E20110FF 		bx	lr
 402:../lib/io_driver.c **** 	switch(index){
 793              	
 794 046c E2411006 		.loc 1 414 0
 795              		mcr p15,0,r0,c11,c11,0
 796              		bx	lr
 797              	.L135:
 798              		.loc 1 415 0
 799 0470 E3510007 		mcr p15,0,r0,c12,c12,0
 800 0474 979FF101 		bx	lr
 801 0478 EA000008 	.LFE20:
 803              		.align	2
 804 047c 000004A4 		.global	uart0_printf
 806 0484 000004A0 	uart0_printf:
 807 0488 000004A0 	.LFB25:
 808 048c 000004A0 		.file 2 "../lib/uart.c"
 809 0490 000004AC 		.loc 2 7 0
 810 0494 000004B4 		@ args = 0, pretend = 0, frame = 0
 811 0498 0000049C 		@ frame_needed = 0, uses_anonymous_args = 0
 812              	.LVL82:
 403:../lib/io_driver.c **** //		case ID_REG_0:   asm volatile ("mcr p15,0,%0, c0, c0,0" : /* no outputs */ : "r" (_cp_val)); br
 404:../lib/io_driver.c **** //		case ID_REG_1:   asm volatile ("mcr p15,0,%0, c1, c1,0" : /* no outputs */ : "r" (_cp_val)); br
 405:../lib/io_driver.c **** //		case ID_REG_2:   asm volatile ("mcr p15,0,%0, c2, c2,0" : /* no outputs */ : "r" (_cp_val)); br
 406:../lib/io_driver.c **** //		case 3:          asm volatile ("mcr p15,0,%0, c3, c3,0" : /* no outputs */ : "r" (_cp_val)); br
 407:../lib/io_driver.c **** //		case 4:          asm volatile ("mcr p15,0,%0, c4, c4,0" : /* no outputs */ : "r" (_cp_val)); br
 408:../lib/io_driver.c **** //		case 5:          asm volatile ("mcr p15,0,%0, c5, c5,0" : /* no outputs */ : "r" (_cp_val)); br
 409:../lib/io_driver.c **** 		case SYS_CTRL_0: asm volatile ("mcr p15,0,%0, c6, c6,0" : /* no outputs */ : "r" (_cp_val)); brea
 410:../lib/io_driver.c **** //		case 7:          asm volatile ("mcr p15,0,%0, c7, c7,0" : /* no outputs */ : "r" (_cp_val)); br
 411:../lib/io_driver.c **** //		case CSTAT:      asm volatile ("mcr p15,0,%0, c8, c8,0" : /* no outputs */ : "r" (_cp_val)); br
 412:../lib/io_driver.c **** //		case ADR_FB:     asm volatile ("mcr p15,0,%0, c9, c9,0" : /* no outputs */ : "r" (_cp_val)); br
 413:../lib/io_driver.c **** //		case 10:         asm volatile ("mcr p15,0,%0,c10,c10,0" : /* no outputs */ : "r" (_cp_val)); br
 414:../lib/io_driver.c **** 		case LFSR_POLY:  asm volatile ("mcr p15,0,%0,c11,c11,0" : /* no outputs */ : "r" (_cp_val)); brea
 415:../lib/io_driver.c **** 		case LFSR_DATA:  asm volatile ("mcr p15,0,%0,c12,c12,0" : /* no outputs */ : "r" (_cp_val)); brea
 416:../lib/io_driver.c **** 		case SYS_IO:     asm volatile ("mcr p15,0,%0,c13,c13,0" : /* no outputs */ : "r" (_cp_val)); brea
 813              	}
 814 049c EE0D0F1D 	.LCFI2:
 815              		.loc 2 7 0
 816 04a0 E12FFF1E 		mov	r4, r0
 817              		.loc 2 10 0
 818              		ldrb	r0, [r0, #0]	@ zero_extendqisi2
 819 04a4 EE060F16 	.LVL83:
 820 04a8 E12FFF1E 		cmp	r0, #0
 821              		bne	.L144
 822              		b	.L140
 823 04ac EE0B0F1B 	.LVL84:
 824 04b0 E12FFF1E 	.L146:
 825              		ldrb	r0, [r4, #1]!	@ zero_extendqisi2
 826              	.LVL85:
 827 04b4 EE0C0F1C 		cmp	r0, #0
 828 04b8 E12FFF1E 		beq	.L140
 829              	.L144:
 830              		.loc 2 11 0
 831              		bl	io_uart0_send_byte
 832              	.LVL86:
 833              		cmp	r0, #0
 834              		bgt	.L146
 835              	.LVL87:
 836              	.L140:
   1:../lib/uart.c **** #include "uart.h"
   2:../lib/uart.c **** 
   3:../lib/uart.c **** // ############################################################################################
   4:../lib/uart.c **** // Print text string via UART 0
   5:../lib/uart.c ****    const char *uart0_printf(const char *string)
   6:../lib/uart.c **** // ############################################################################################
   7:../lib/uart.c **** {
 837              	
 838              	.LVL88:
 839              		ldmfd	sp!, {r4, pc}
 840              	.LFE25:
 842              		.align	2
 843              		.global	uart0_scanf
   8:../lib/uart.c **** 	char ch;
   9:../lib/uart.c **** 
  10:../lib/uart.c **** 	while ((ch = *string)){
 845              	canf:
 846 04c4 E5D00000 	.LFB26:
 847              		.loc 2 22 0
 848 04c8 E3500000 		@ args = 0, pretend = 0, frame = 0
 849 04cc 1A000003 		@ frame_needed = 0, uses_anonymous_args = 0
 850 04d0 EA000005 	.LVL89:
 851              		stmfd	sp!, {r4, r5, r6, lr}
 852              	.LCFI3:
 853 04d4 E5F40001 		.loc 2 25 0
 854              		subs	r4, r1, #0
 855 04d8 E3500000 		.loc 2 22 0
 856 04dc 0A000002 		mov	r5, r0
 857              		and	r6, r2, #255
  11:../lib/uart.c **** 		if (io_uart0_send_byte(ch)<=0)
 858              		ldmlefd	sp!, {r4, r5, r6, pc}
 859 04e0 EBFFFFFE 	.LVL90:
 860              	.L155:
 861 04e4 E3500000 		.loc 2 26 0
 862 04e8 CAFFFFF9 		bl	io_uart0_read_byte
 863              	.LVL91:
 864              	.LVL92:
  12:../lib/uart.c **** 			break;
  13:../lib/uart.c **** 		string++;
  14:../lib/uart.c **** 	}
  15:../lib/uart.c **** 	return string;
  16:../lib/uart.c **** }
 865              	 27 0
 866 04ec E1A00004 		cmn	r0, #1
 867              		.loc 2 28 0
 868 04f0 E8BD8010 		and	r3, r0, #255
 869              	.LVL93:
 870              		.loc 2 27 0
 871              		beq	.L150
 872              		.loc 2 30 0
 873              		cmp	r6, #1
 874              	.LVL94:
 875              		.loc 2 29 0
  17:../lib/uart.c **** 
  18:../lib/uart.c **** // ############################################################################################
  19:../lib/uart.c **** // Read text string via UART 0
  20:../lib/uart.c ****    void uart0_scanf(unsigned char *buffer, int length, unsigned char en_echo)
  21:../lib/uart.c **** // ############################################################################################
  22:../lib/uart.c **** {
 876              	r5, #0]
 877              	.LVL95:
 878              		.loc 2 31 0
 879              		mov	r0, r3
 880 04f4 E92D4070 	.LVL96:
 881              		.loc 2 29 0
  23:../lib/uart.c **** 	int temp = 0;
  24:../lib/uart.c **** 
  25:../lib/uart.c **** 	while(length > 0){
 882              	5, r5, #1
 883 04f8 E2514000 		.loc 2 30 0
 884              		beq	.L157
 885 04fc E1A05000 	.LVL97:
 886 0500 E20260FF 	.L152:
 887              		.loc 2 32 0
 888 0504 D8BD8070 		sub	r4, r4, #1
 889              	.LVL98:
 890              	.L150:
  26:../lib/uart.c **** 		temp = io_uart0_read_byte();
 891              	5 0
 892 0508 EBFFFFFE 		cmp	r4, #0
 893              		bgt	.L155
 894              		ldmfd	sp!, {r4, r5, r6, pc}
  27:../lib/uart.c **** 		if(temp != -1){
 895              	99:
 896 050c E3700001 	.L157:
  28:../lib/uart.c **** 			temp = (unsigned char)(temp & 0x000000FF);
 897              	loc 2 31 0
 898 0510 E20030FF 		bl	io_uart0_send_byte
 899              	.LVL100:
 900              		b	.L152
 901 0514 0A000005 	.LFE26:
  29:../lib/uart.c **** 			*buffer++ = temp;
  30:../lib/uart.c **** 			if(en_echo == 1)
 902              	e	uart0_scanf, .-uart0_scanf
 903 0518 E3560001 		.align	2
 904              		.global	uart0_print_buffer
 906 051c E5C53000 	uart0_print_buffer:
 907              	.LFB27:
  31:../lib/uart.c **** 				io_uart0_send_byte(temp); // echo
 908              	2 41 0
 909 0520 E1A00003 		@ args = 0, pretend = 0, frame = 0
 910              		@ frame_needed = 0, uses_anonymous_args = 0
 911              	.LVL101:
 912 0524 E2855001 		stmfd	sp!, {r4, r5, lr}
 913              	.LCFI4:
 914 0528 0A000003 		.loc 2 43 0
 915              		subs	r4, r1, #0
 916              		.loc 2 41 0
  32:../lib/uart.c **** 			length--;
 917              	r0
 918 052c E2444001 		.loc 2 43 0
 919              		ldmlefd	sp!, {r4, r5, pc}
 920              	.LVL102:
 921              	.L162:
 922 0530 E3540000 		.loc 2 45 0
 923 0534 CAFFFFF3 		ldrb	r0, [r5], #1	@ zero_extendqisi2
 924 0538 E8BD8070 	.LVL103:
 925              		bl	io_uart0_send_byte
 926              	.LVL104:
 927              		.loc 2 43 0
 928 053c EBFFFFFE 		subs	r4, r4, #1
 929              		bne	.L162
 930 0540 EAFFFFF9 		ldmfd	sp!, {r4, r5, pc}
 931              	.LFE27:
 933              		.align	2
 934              		.global	memTestDataBus
 936              	memTestDataBus:
 937              	.LFB28:
  33:../lib/uart.c **** 		}
  34:../lib/uart.c **** 	}
  35:../lib/uart.c **** }
  36:../lib/uart.c **** 
  37:../lib/uart.c **** // ############################################################################################
  38:../lib/uart.c **** // Print character buffer via UART 0
  39:../lib/uart.c ****    void uart0_print_buffer(unsigned char *buffer, int size)
  40:../lib/uart.c **** // ############################################################################################
  41:../lib/uart.c **** {
 938              		.loc 3 38 0
 939              		@ args = 0, pretend = 0, frame = 0
 940              		@ frame_needed = 0, uses_anonymous_args = 0
 941              		@ link register save eliminated.
 942 0544 E92D4030 	.LVL105:
 943              		mov	r2, r0
  42:../lib/uart.c **** 	unsigned char char_buffer = 0;
  43:../lib/uart.c **** 	while(size > 0){
 944              	needed for prologue
 945 0548 E2514000 		.loc 3 38 0
 946              		mov	r0, #1
 947 054c E1A05000 	.LVL106:
 948              	.L165:
 949 0550 D8BD8030 		.loc 3 50 0
 950              		str	r0, [r2, #0]
 951              		.loc 3 55 0
  44:../lib/uart.c **** 		char_buffer = *buffer++;
  45:../lib/uart.c **** 		io_uart0_send_byte((int)char_buffer);
 952              	 [r2, #0]
 953 0554 E4D50001 		cmp	r3, r0
 954              		bxne	lr
 955 0558 EBFFFFFE 		.loc 3 45 0
 956              		movs	r0, r0, asl #1
 957              		bne	.L165
 958 055c E2544001 	.LVL107:
 959 0560 1AFFFFFB 		.loc 3 63 0
 960 0564 E8BD8030 		bx	lr
 961              	.LFE28:
 963              		.align	2
 964              		.global	memTestAddressBus
 966              	memTestAddressBus:
 967              	.LFB29:
 968              		.loc 3 93 0
   1:memtest.c     **** /**********************************************************************
   2:memtest.c     ****  *
   3:memtest.c     ****  * Filename:    memtest.c
   4:memtest.c     ****  * 
   5:memtest.c     ****  * Description: General-purpose memory testing functions.
   6:memtest.c     ****  *
   7:memtest.c     ****  * Notes:       This software can be easily ported to systems with
   8:memtest.c     ****  *              different data bus widths by redefining 'datum'.
   9:memtest.c     ****  *
  10:memtest.c     ****  * 
  11:memtest.c     ****  * Copyright (c) 1998 by Michael Barr.  This software is placed into
  12:memtest.c     ****  * the public domain and may be used for any purpose.  However, this
  13:memtest.c     ****  * notice must not be changed or removed and no warranty is either
  14:memtest.c     ****  * expressed or implied by its publication or distribution.
  15:memtest.c     ****  **********************************************************************/
  16:memtest.c     **** 
  17:memtest.c     **** 
  18:memtest.c     **** #include "memtest.h"
  19:memtest.c     **** 
  20:memtest.c     **** 
  21:memtest.c     **** /**********************************************************************
  22:memtest.c     ****  *
  23:memtest.c     ****  * Function:    memTestDataBus()
  24:memtest.c     ****  *
  25:memtest.c     ****  * Description: Test the data bus wiring in a memory region by
  26:memtest.c     ****  *              performing a walking 1's test at a fixed address
  27:memtest.c     ****  *              within that region.  The address (and hence the
  28:memtest.c     ****  *              memory region) is selected by the caller.
  29:memtest.c     ****  *
  30:memtest.c     ****  * Notes:       
  31:memtest.c     ****  *
  32:memtest.c     ****  * Returns:     0 if the test succeeds.  
  33:memtest.c     ****  *              A non-zero result is the first pattern that failed.
  34:memtest.c     ****  *
  35:memtest.c     ****  **********************************************************************/
  36:memtest.c     **** datum
  37:memtest.c     **** memTestDataBus(volatile datum * address)
  38:memtest.c     **** {
 969              	end = 0, frame = 0
 970              		@ frame_needed = 0, uses_anonymous_args = 0
 971              	.LVL108:
 972              		.loc 3 94 0
 973              		mov	r1, r1, lsr #2
 974 0568 E1A02000 	.LVL109:
 975              		.loc 3 93 0
 976              		stmfd	sp!, {r4, r5, lr}
 977 056c E3A00001 	.LCFI5:
 978              		.loc 3 94 0
 979              		sub	lr, r1, #1
  39:memtest.c     **** form a walking 1's test at the given address.
  40:memtest.c     ****      */
  41:memtest.c     ****     for (pattern = 1; pattern != 0; pattern <<= 1)
  42:memtest.c     ****     {
  43:memtest.c     ****         /*
  44:memtest.c     ****          * Write the test pattern.
  45:memtest.c     ****          */
  46:memtest.c     ****         *address = pattern;
  47:memtest.c     **** 
  48:memtest.c     ****         /*
  49:memtest.c     ****          * Read it back (immediately is okay for this test).
  50:memtest.c     ****          */
 980              	loc 3 105 0
 981 0570 E5820000 		ands	r1, lr, #1
  51:memtest.c     **** *address != pattern) 
  52:memtest.c     ****         {
  53:memtest.c     ****             return (pattern);
  54:memtest.c     ****         }
  55:memtest.c     ****     }
 982              	eq	.L171
 983 0574 E5923000 		mov	r1, #43520
 984 0578 E1530000 		add	r1, r1, #170
 985 057c 112FFF1E 		orr	r1, r1, r1, asl #16
 986              		mov	r2, #1
 987 0580 E1B00080 	.LVL111:
 988 0584 1AFFFFF9 	.L173:
 989              		.loc 3 107 0
  56:memtest.c     **** return (0);
  57:memtest.c     **** 
  58:memtest.c     **** }   /* memTestDataBus() */
  59:memtest.c     **** 
  60:memtest.c     **** 
  61:memtest.c     **** /**********************************************************************
  62:memtest.c     ****  *
  63:memtest.c     ****  * Function:    memTestAddressBus()
 990              	 r2, asl #2
 991 0588 E12FFF1E 		.loc 3 105 0
 992              		mov	r2, r2, asl #1
 993              		tst	lr, r2
 994              		.loc 3 107 0
 995              		str	r1, [r0, r3]
 996              		.loc 3 105 0
 997              		bne	.L173
 998              		.loc 3 114 0
  64:memtest.c     **** scription: Test the address bus wiring in a memory region by
  65:memtest.c     ****  *              performing a walking 1's test on the relevant bits
  66:memtest.c     ****  *              of the address and checking for aliasing. This test
  67:memtest.c     ****  *              will find single-bit address failures such as stuck
  68:memtest.c     ****  *              -high, stuck-low, and shorted pins.  The base address
  69:memtest.c     ****  *              and size of the region are selected by the caller.
  70:memtest.c     ****  *
  71:memtest.c     ****  * Notes:       For best results, the selected base address should
  72:memtest.c     ****  *              have enough LSB 0's to guarantee single address bit
  73:memtest.c     ****  *              changes.  For example, to test a 64-Kbyte region, 
  74:memtest.c     ****  *              select a base address on a 64-Kbyte boundary.  Also, 
  75:memtest.c     ****  *              select the region size as a power-of-two--if at all 
  76:memtest.c     ****  *              possible.
  77:memtest.c     ****  *
  78:memtest.c     ****  * Returns:     NULL if the test succeeds.  
  79:memtest.c     ****  *              A non-zero result is the first address at which an
  80:memtest.c     ****  *              aliasing problem was uncovered.  By examining the
  81:memtest.c     ****  *              contents of memory, it may be possible to gather
  82:memtest.c     ****  *              additional information about the problem.
  83:memtest.c     ****  *
  84:memtest.c     ****  **********************************************************************/
  85:memtest.c     **** datum * 
  86:memtest.c     **** memTestAddressBus(volatile datum * baseAddress, unsigned long nBytes)
  87:memtest.c     **** {
  88:memtest.c     ****     unsigned long addressMask = (nBytes/sizeof(datum) - 1);
  89:memtest.c     ****     unsigned long offset;
  90:memtest.c     ****     unsigned long testOffset;
  91:memtest.c     **** 
  92:memtest.c     ****     datum pattern     = (datum) 0xAAAAAAAA;
  93:memtest.c     ****     datum antipattern = (datum) 0x55555555;
 999              	#21760
 1000              		add	r3, r3, #85
 1001              		mov	r5, r0
 1002              		orr	r3, r3, r3, asl #16
  94:memtest.c     **** ult pattern at each of the power-of-two offsets.
 1003              		r3, [r5], #4
 1004 058c E1A01121 		.loc 3 118 0
 1005              		ldr	r2, [r0, #4]
 1006              	.LVL112:
 1007 0590 E92D4030 		cmp	r2, r1
 1008              		movne	ip, r5
 1009              		bne	.L177
 1010 0594 E241E001 		.loc 3 120 0
 1011              		mov	r1, #1
  95:memtest.c     ****  0xAAAAAAAA;
  96:memtest.c     ****     datum antipattern = (datum) 0x55555555;
  97:memtest.c     **** 
  98:memtest.c     **** 
  99:memtest.c     ****     /*
 100:memtest.c     ****      * Write the default pattern at each of the power-of-two offsets.
 101:memtest.c     ****      */
 102:memtest.c     ****     for (offset = 1; (offset & addressMask) != 0; offset <<= 1)
 103:memtest.c     ****     {
 104:memtest.c     ****         baseAddress[offset] = pattern;
 105:memtest.c     ****     }
 1012              		b	.L179
 1013 0598 E21E1001 	.L178:
 1014 059c 0A00004A 		.loc 3 118 0
 1015 05a0 E3A01CAA 		ldr	r3, [r0, r3]
 1016 05a4 E28110AA 		cmp	r3, r2
 1017 05a8 E1811801 		bne	.L177
 1018 05ac E3A02001 	.L179:
 1019              		.loc 3 116 0
 1020              		mov	r1, r1, asl #1
 106:memtest.c     **** ffsets.
 107:memtest.c     ****      */
 1021              	18 0
 1022 05b0 E1A03102 		mov	r2, #43520
 1023              		add	r2, r2, #170
 1024 05b4 E1A02082 		mov	r3, r1, asl #2
 1025 05b8 E11E0002 		.loc 3 116 0
 1026              		tst	lr, r1
 1027 05bc E7801003 		.loc 3 118 0
 1028              		orr	r2, r2, r2, asl #16
 1029 05c0 1AFFFFFA 		add	ip, r0, r3
 108:memtest.c     **** AA;
 109:memtest.c     ****     datum antipattern = (datum) 0x55555555;
 110:memtest.c     **** 
 111:memtest.c     **** 
 112:memtest.c     ****     /*
 113:memtest.c     ****      * Write the default pattern at each of the power-of-two offsets.
 114:memtest.c     ****      */
 1030              	16 0
 1031 05c4 E3A03C55 		bne	.L178
 1032 05c8 E2833055 		.loc 3 124 0
 1033 05cc E1A05000 		mov	r3, #43520
 1034 05d0 E1833803 		.loc 3 131 0
 1035 05d4 E4853004 		mov	r2, #21760
 115:memtest.c     **** AA;
 116:memtest.c     ****     datum antipattern = (datum) 0x55555555;
 117:memtest.c     **** 
 118:memtest.c     **** 
 1036              	3 124 0
 1037 05d8 E5902004 		add	r3, r3, #170
 1038              		.loc 3 131 0
 1039 05dc E1520001 		add	r2, r2, #85
 1040 05e0 11A0C005 		.loc 3 124 0
 1041 05e4 1A000035 		orr	r3, r3, r3, asl #16
 119:memtest.c     **** ned long offset;
 120:memtest.c     ****     unsigned long testOffset;
 1042              	3 131 0
 1043 05e8 E3A01001 		orr	r2, r2, r2, asl #16
 1044              		.loc 3 124 0
 1045 05ec EA000002 		str	r3, [r0, #0]
 1046              		.loc 3 131 0
 1047              		str	r2, [r5, #0]
 1048 05f0 E7903003 		.loc 3 133 0
 1049 05f4 E1530002 		ldr	r1, [r0, #0]
 1050 05f8 1A000030 	.LVL114:
 1051              		cmp	r1, r3
 1052              		moveq	r4, #1
 1053 05fc E1A01081 	.LVL115:
 1054              		bne	.L193
 1055 0600 E3A02CAA 	.L184:
 1056 0604 E28220AA 		mov	r1, #1
 1057 0608 E1A03101 	.LVL116:
 1058              	.L185:
 1059 060c E11E0001 		.loc 3 140 0
 1060              		mov	r3, r1, asl #2
 1061 0610 E1822802 		mov	ip, #43520
 1062 0614 E080C003 		ldr	r2, [r0, r3]
 1063              		add	ip, ip, #170
 1064 0618 1AFFFFF4 		orr	ip, ip, ip, asl #16
 121:memtest.c     **** s, unsigned long nBytes)
 122:memtest.c     **** {
 123:memtest.c     ****     unsigned long addressMask = (nBytes/sizeof(datum) - 1);
 124:memtest.c     ****     unsigned long offset;
 1065              		cmp	r1, r4
 1066 061c E3A03CAA 		bne	.L193
 125:memtest.c     **** Bus(volatile datum * baseAddress, unsigned long nBytes)
 126:memtest.c     **** {
 127:memtest.c     ****     unsigned long addressMask = (nBytes/sizeof(datum) - 1);
 128:memtest.c     ****     unsigned long offset;
 129:memtest.c     ****     unsigned long testOffset;
 130:memtest.c     **** 
 131:memtest.c     ****     datum pattern     = (datum) 0xAAAAAAAA;
 1067              	186:
 1068 0620 E3A02C55 		.loc 3 138 0
 1069              		mov	r1, r1, asl #1
 1070 0624 E28330AA 		tst	lr, r1
 1071              		bne	.L185
 1072 0628 E2822055 		.loc 3 129 0
 1073              		mov	r4, r4, asl #1
 1074 062c E1833803 		ands	r2, lr, r4
 1075              		.loc 3 146 0
 1076 0630 E1822802 		str	ip, [r5, #0]
 1077              		.loc 3 129 0
 1078 0634 E5803000 		beq	.L200
 1079              		.loc 3 131 0
 1080 0638 E5852000 		mov	r3, #21760
 132:memtest.c     **** dressMask = (nBytes/sizeof(datum) - 1);
 133:memtest.c     ****     unsigned long offset;
 1081              	85
 1082 063c E5901000 		mov	r1, r4, asl #2
 1083              	.LVL117:
 1084 0640 E1510003 		orr	r3, r3, r3, asl #16
 1085 0644 03A04001 		str	r3, [r0, r1]
 1086              		.loc 3 133 0
 1087 0648 1A000019 		ldr	r2, [r0, #0]
 1088              		cmp	r2, ip
 1089 064c E3A01001 		.loc 3 131 0
 1090              		add	r5, r0, r1
 1091              		.loc 3 133 0
 134:memtest.c     **** Bus(volatile datum * baseAddress, unsigned long nBytes)
 135:memtest.c     **** {
 136:memtest.c     ****     unsigned long addressMask = (nBytes/sizeof(datum) - 1);
 137:memtest.c     ****     unsigned long offset;
 138:memtest.c     ****     unsigned long testOffset;
 139:memtest.c     **** 
 140:memtest.c     ****     datum pattern     = (datum) 0xAAAAAAAA;
 1092              	.LVL118:
 1093 0650 E1A03101 	.L193:
 1094 0654 E3A0CCAA 		.loc 3 142 0
 1095 0658 E7902003 		mov	r1, r5
 1096 065c E28CC0AA 	.LVL119:
 1097 0660 E18CC80C 	.L180:
 1098 0664 E152000C 		.loc 3 151 0
 1099 0668 0A000001 		mov	r0, r1
 1100 066c E1510004 	.LVL120:
 1101 0670 1A00000F 		ldmfd	sp!, {r4, r5, pc}
 1102              	.LVL121:
 1103              	.L177:
 1104 0674 E1A01081 		.loc 3 120 0
 1105 0678 E11E0001 		mov	r1, ip
 1106 067c 1AFFFFF3 	.LVL122:
 1107              		.loc 3 151 0
 1108 0680 E1A04084 		mov	r0, r1
 1109 0684 E01E2004 	.LVL123:
 141:memtest.c     **** dressMask = (nBytes/sizeof(datum) - 1);
 142:memtest.c     ****     unsigned long offset;
 143:memtest.c     ****     unsigned long testOffset;
 144:memtest.c     **** 
 145:memtest.c     ****     datum pattern     = (datum) 0xAAAAAAAA;
 146:memtest.c     ****     datum antipattern = (datum) 0x55555555;
 1110              	5, pc}
 1111 0688 E585C000 	.LVL124:
 1112              	.L171:
 1113 068c 0A000018 		.loc 3 114 0
 1114              		mov	r3, #21760
 1115 0690 E3A03C55 		.loc 3 124 0
 1116 0694 E2833055 		mov	r2, #43520
 1117 0698 E1A01104 		.loc 3 114 0
 1118              		add	r3, r3, #85
 1119 069c E1833803 		.loc 3 124 0
 1120 06a0 E7803001 		add	r2, r2, #170
 1121              		.loc 3 114 0
 1122 06a4 E5902000 		orr	r3, r3, r3, asl #16
 1123 06a8 E152000C 		.loc 3 124 0
 1124              		orr	r2, r2, r2, asl #16
 1125 06ac E0805001 		.loc 3 114 0
 1126              		str	r3, [r0, #0]
 1127 06b0 0AFFFFE5 		.loc 3 124 0
 1128              		str	r2, [r0, #0]
 1129              		.loc 3 151 0
 1130              		mov	r0, r1
 1131 06b4 E1A01005 	.LVL125:
 1132              		ldmfd	sp!, {r4, r5, pc}
 1133              	.LVL126:
 147:memtest.c     **** nsigned long offset;
 148:memtest.c     ****     unsigned long testOffset;
 149:memtest.c     **** 
 150:memtest.c     ****     datum pattern     = (datum) 0xAAAAAAAA;
 151:memtest.c     ****     datum antipattern = (datum) 0x55555555;
 1134              	v	r1, r2
 1135 06b8 E1A00001 	.LVL127:
 1136              		b	.L180
 1137 06bc E8BD8030 	.LFE29:
 1139              		.align	2
 1140              		.global	memTestDevice1
 1142              	memTestDevice1:
 1143              	.LFB30:
 1144 06c4 E1A00001 		.loc 3 177 0
 1145              		@ args = 0, pretend = 0, frame = 0
 1146 06c8 E8BD8030 		@ frame_needed = 0, uses_anonymous_args = 0
 1147              		@ link register save eliminated.
 1148              	.LVL128:
 1149              		.loc 3 188 0
 1150 06cc E3A03C55 		movs	r1, r1, lsr #2
 1151              	.LVL129:
 1152 06d0 E3A02CAA 		.loc 3 177 0
 1153              		@ lr needed for prologue
 1154 06d4 E2833055 		.loc 3 188 0
 1155              		beq	.L202
 1156 06d8 E28220AA 		mov	r3, #1
 1157              	.LVL130:
 1158 06dc E1833803 		mov	r2, r0
 1159              	.LVL131:
 1160 06e0 E1822802 		add	ip, r1, r3
 1161              	.L204:
 1162 06e4 E5803000 	.LVL132:
 1163              		.loc 3 190 0
 1164 06e8 E5802000 		str	r3, [r2], #4
 1165              		.loc 3 188 0
 1166 06ec E1A00001 		add	r3, r3, #1
 1167              		cmp	ip, r3
 1168 06f0 E8BD8030 		bne	.L204
 1169              		.loc 3 198 0
 1170              		ldr	r3, [r0, #0]
 1171              	.LVL133:
 1172 06f4 E1A01002 		cmp	r3, #1
 1173              		bxne	lr
 1174 06f8 EAFFFFEE 		.loc 3 200 0
 1175              		add	r2, r0, #4
 1176              		mov	ip, r3
 1177              	.LVL134:
 1178              		b	.L209
 1179              	.L208:
 1180              		.loc 3 198 0
 1181              		ldr	r3, [r2], #4
 152:memtest.c     **** nsigned long offset;
 153:memtest.c     ****     unsigned long testOffset;
 154:memtest.c     **** 
 155:memtest.c     ****     datum pattern     = (datum) 0xAAAAAAAA;
 156:memtest.c     ****     datum antipattern = (datum) 0x55555555;
 157:memtest.c     **** 
 158:memtest.c     **** 
 159:memtest.c     ****     /*
 160:memtest.c     ****      * Write the default pattern at each of the power-of-two offsets.
 161:memtest.c     ****      */
 162:memtest.c     ****     for (offset = 1; (offset & addressMask) != 0; offset <<= 1)
 163:memtest.c     ****     {
 164:memtest.c     ****         baseAddress[offset] = pattern;
 165:memtest.c     ****     }
 166:memtest.c     **** 
 167:memtest.c     ****     /* 
 168:memtest.c     ****      * Check for address bits stuck high.
 169:memtest.c     ****      */
 170:memtest.c     ****     testOffset = 0;
 171:memtest.c     ****     baseAddress[testOffset] = antipattern;
 172:memtest.c     **** 
 173:memtest.c     ****     for (offset = 1; (offset & addressMask) != 0; offset <<= 1)
 174:memtest.c     ****     {
 175:memtest.c     ****         if (baseAddress[offset] != pattern)
 176:memtest.c     ****         {
 177:memtest.c     ****             return ((datum *) &baseAddress[offset]);
 1182              		r1, ip
 1183              		mov	r0, r2
 1184              		add	ip, ip, #1
 1185              		bne	.L208
 1186              	.L202:
 178:memtest.c     **** <= 1)
 179:memtest.c     ****     {
 180:memtest.c     ****         if (baseAddress[offset] != pattern)
 181:memtest.c     ****         {
 182:memtest.c     ****             return ((datum *) &baseAddress[offset]);
 183:memtest.c     ****         }
 184:memtest.c     ****     }
 185:memtest.c     **** 
 186:memtest.c     ****     baseAddress[testOffset] = pattern;
 187:memtest.c     **** 
 188:memtest.c     ****     /*
 1187              	r0, #0
 1188 06fc E1B01121 	.LVL135:
 1189              		.loc 3 206 0
 1190              		bx	lr
 1191              	.LVL136:
 1192              	.L216:
 1193 0700 0A000013 		bx	lr
 1194 0704 E3A03001 	.LFE30:
 1196 0708 E1A02000 		.align	2
 1197              		.global	memTestDevice2
 1199              	memTestDevice2:
 1200              	.LFB31:
 189:memtest.c     ****         return ((datum *) &baseAddress[offset]);
 190:memtest.c     ****         }
 1201              		@ args = 0, pretend = 0, frame = 0
 1202 0710 E4823004 		@ frame_needed = 0, uses_anonymous_args = 0
 1203              	.LVL137:
 1204 0714 E2833001 		.loc 3 219 0
 1205 0718 E15C0003 		movs	r1, r1, lsr #2
 1206 071c 1AFFFFFB 	.LVL138:
 191:memtest.c     **** 
 192:memtest.c     ****         if (baseAddress[offset] != pattern)
 193:memtest.c     ****         {
 194:memtest.c     ****             return ((datum *) &baseAddress[offset]);
 195:memtest.c     ****         }
 196:memtest.c     ****     }
 197:memtest.c     **** 
 198:memtest.c     ****     baseAddress[testOffset] = pattern;
 1207              	3 209 0
 1208 0720 E5903000 		str	lr, [sp, #-4]!
 1209              	.LCFI6:
 1210 0724 E3530001 		.loc 3 219 0
 1211 0728 112FFF1E 		beq	.L218
 199:memtest.c     ****     {
 200:memtest.c     ****             return ((datum *) &baseAddress[offset]);
 1212              	r2, #1
 1213 072c E2802004 	.LVL139:
 1214 0730 E1A0C003 		mov	ip, r0
 1215              	.LVL140:
 1216 0734 EA000002 		add	lr, r1, r2
 1217              	.L220:
 1218              	.LVL141:
 1219 0738 E4923004 		.loc 3 221 0
 1220 073c E153000C 		mvn	r3, r2
 1221 0740 1A000005 	.LVL142:
 1222              		.loc 3 219 0
 1223              		add	r2, r2, #1
 1224 0744 E151000C 		cmp	lr, r2
 1225 0748 E1A00002 		.loc 3 222 0
 1226 074c E28CC001 		str	r3, [ip], #4
 1227 0750 1AFFFFF8 		.loc 3 219 0
 1228              		bne	.L220
 1229 0754 E3A00000 		.loc 3 231 0
 1230              		ldr	r3, [r0, #0]
 201:memtest.c     **** <= 1)
 202:memtest.c     ****     {
 203:memtest.c     ****         if (baseAddress[offset] != pattern)
 204:memtest.c     ****         {
 205:memtest.c     ****             return ((datum *) &baseAddress[offset]);
 206:memtest.c     ****         }
 1231              	2
 1232 0758 E12FFF1E 		ldrne	pc, [sp], #4
 1233              		.loc 3 233 0
 1234              		add	r2, r0, #4
 1235 075c E12FFF1E 	.LVL144:
 1236              		mov	lr, #1
 1237              	.LVL145:
 1238              		b	.L225
 1239              	.L224:
 1240              		.loc 3 231 0
 1241              		ldr	r3, [r2], #4
 1242              		cmp	ip, r3
 207:memtest.c     **** 
 208:memtest.c     ****         if (baseAddress[offset] != pattern)
 209:memtest.c     ****         {
 1243              	L225:
 1244              		.loc 3 228 0
 1245              		cmp	r1, lr
 1246              		add	lr, lr, #1
 210:memtest.c     **** for (offset = 1; (offset & addressMask) != 0; offset <<= 1)
 211:memtest.c     ****     {
 212:memtest.c     ****         if (baseAddress[offset] != pattern)
 213:memtest.c     ****         {
 214:memtest.c     ****             return ((datum *) &baseAddress[offset]);
 215:memtest.c     ****         }
 216:memtest.c     ****     }
 217:memtest.c     **** 
 218:memtest.c     ****     baseAddress[testOffset] = pattern;
 219:memtest.c     **** 
 1247              		r0, r2
 1248 0760 E1B01121 		.loc 3 231 0
 1249              		mvn	ip, lr
 1250              		.loc 3 228 0
 1251 0764 E52DE004 		bne	.L224
 1252              	.L218:
 1253              		mov	r0, #0
 1254 0768 0A000015 	.LVL146:
 1255 076c E3A02001 		.loc 3 239 0
 1256              		ldr	pc, [sp], #4
 1257 0770 E1A0C000 	.LVL147:
 1258              	.L232:
 1259 0774 E081E002 		ldr	pc, [sp], #4
 1260              	.LFE31:
 220:memtest.c     ****   {
 221:memtest.c     ****             return ((datum *) &baseAddress[offset]);
 1262              	bal	long_to_hex_string
 1264              	long_to_hex_string:
 1265              	.LFB32:
 1266 077c E2822001 		.file 4 "main.c"
 1267 0780 E15E0002 		.loc 4 31 0
 222:memtest.c     **** <= 1)
 1268              	s = 0, pretend = 0, frame = 0
 1269 0784 E48C3004 		@ frame_needed = 0, uses_anonymous_args = 0
 1270              	.LVL148:
 1271 0788 1AFFFFFA 		stmfd	sp!, {r4, lr}
 223:memtest.c     **** estOffset = 0;
 224:memtest.c     ****     baseAddress[testOffset] = antipattern;
 225:memtest.c     **** 
 226:memtest.c     ****     for (offset = 1; (offset & addressMask) != 0; offset <<= 1)
 227:memtest.c     ****     {
 228:memtest.c     ****         if (baseAddress[offset] != pattern)
 229:memtest.c     ****         {
 230:memtest.c     ****             return ((datum *) &baseAddress[offset]);
 231:memtest.c     ****         }
 1272              	I7:
 1273 078c E5903000 		.loc 4 31 0
 1274              		and	r4, r2, #255
 1275 0790 E3730002 		.loc 4 36 0
 1276 0794 149DF004 		cmp	r4, #8
 232:memtest.c     **** 
 233:memtest.c     ****         if (baseAddress[offset] != pattern)
 1277              	i	r4, #8
 1278 0798 E2802004 		bhi	.L236
 1279              	.LVL149:
 1280 079c E3A0E001 		.loc 4 38 0
 1281              		cmp	r4, #0
 1282 07a0 EA000002 		.loc 4 61 0
 1283              		moveq	r4, #1
 1284              	.L236:
 1285 07a4 E4923004 		mov	r2, r1
 1286 07a8 E15C0003 	.LVL150:
 1287 07ac 1A000006 		mov	lr, r4
 1288              	.LVL151:
 1289              	.L238:
 1290 07b0 E151000E 		.loc 4 44 0
 1291 07b4 E28EE001 		mov	r3, lr, asl #2
 1292 07b8 E1A00002 		.loc 4 43 0
 1293              		cmp	lr, #1
 1294 07bc E1E0C00E 		.loc 4 44 0
 1295              		sub	r3, r3, #4
 1296 07c0 1AFFFFF7 		.loc 4 43 0
 1297              		mov	ip, r0
 1298 07c4 E3A00000 	.LVL152:
 1299              		.loc 4 44 0
 234:memtest.c     **** tern;
 235:memtest.c     **** 
 236:memtest.c     ****     for (offset = 1; (offset & addressMask) != 0; offset <<= 1)
 237:memtest.c     ****     {
 238:memtest.c     ****         if (baseAddress[offset] != pattern)
 239:memtest.c     ****         {
 1300              	.loc 4 48 0
 1301 07c8 E49DF004 		sub	r3, lr, #1
 1302              		.loc 4 47 0
 1303              		and	ip, ip, #15
 1304 07cc E49DF004 	.LVL153:
 1305              		.loc 4 48 0
 1306              		and	lr, r3, #255
 1307              		.loc 4 51 0
 1308              		cmp	ip, #9
 1309              		.loc 4 52 0
 1310              		add	r3, ip, #48
 1311              	.LVL154:
 1312              		.loc 4 54 0
   1:main.c        **** /**********************************************************************
   2:main.c        ****  *
   3:main.c        ****  * Function:    memTest()
   4:main.c        ****  *
   5:main.c        ****  * Description: Test a 4-k chunk of SRAM.
   6:main.c        ****  *
   7:main.c        ****  * Notes:       
   8:main.c        ****  *
   9:main.c        ****  * Returns:     0 on success.
  10:main.c        ****  *              Otherwise -1 indicates failure.
  11:main.c        ****  *
  12:main.c        ****  **********************************************************************/
  13:main.c        **** #include "../lib/io_driver.h"
  14:main.c        **** #include "../lib/io_driver.c"
  15:main.c        **** #include "../lib/uart.h"
  16:main.c        **** #include "../lib/uart.c"
  17:main.c        **** #include "memtest.h"
  18:main.c        **** #include "memtest.c"
  19:main.c        **** 
  20:main.c        **** #define BASE_ADDRESS  (volatile datum *) 0x01000000 //beginning of SDRAM memory
  21:main.c        **** #define NUM_BYTES     ( 32 * 1024 * 1024 ) - 0x00000000
  22:main.c        **** //#define NUM_BYTES     ( 32 * 1024 )
  23:main.c        **** #define CYCLES	100
  24:main.c        **** 
  25:main.c        **** // ############################################################################################
  26:main.c        **** // Convert 4/8/12/16/20/24/28/32 bit hexadecimal value to ASCII string
  27:main.c        ****    void long_to_hex_string(unsigned long data,    // max 32 bit data word
  28:main.c        ****                            unsigned char *buffer, // buffer to store the string
  29:main.c        **** 						   unsigned char numbers) // number of places, max 8
  30:main.c        **** // ############################################################################################
  31:main.c        **** {
 1313              	, #55
 1314              		.loc 4 41 0
 1315              		cmp	lr, #0
 1316              		.loc 4 57 0
 1317 07d0 E92D4010 		strb	r3, [r2], #1
 1318              		.loc 4 41 0
 1319              		bne	.L238
 1320 07d4 E20240FF 		.loc 4 60 0
  32:main.c        **** es, max 8
  33:main.c        **** // ############################################################################################
  34:main.c        **** {
  35:main.c        **** 	unsigned char temp_char = 0;
  36:main.c        **** 	unsigned long temp_data = 0;
 1321              	 r4, #1
 1322 07d8 E3540008 	.LVL155:
 1323 07dc 83A04008 		and	r3, r3, #255
 1324 07e0 8A000001 		add	r3, r1, r3
 1325              		strb	lr, [r3, #1]
  37:main.c        **** ###########################################
  38:main.c        **** {
 1326              	 4 61 0
 1327 07e4 E3540000 		ldmfd	sp!, {r4, pc}
  39:main.c        **** es, max 8
  40:main.c        **** // ############################################################################################
  41:main.c        **** {
  42:main.c        **** 	unsigned char temp_char = 0;
  43:main.c        **** 	unsigned long temp_data = 0;
  44:main.c        **** 
  45:main.c        **** 	// fit into range
  46:main.c        **** 	if(numbers > 8)
  47:main.c        **** 		numbers = 8;
  48:main.c        **** 	if(numbers < 1)
  49:main.c        **** 		numbers = 1;
  50:main.c        **** 
  51:main.c        **** 	while(numbers > 0){
  52:main.c        **** 		// isolate one 4-bit value
  53:main.c        **** 		if(numbers > 1)
  54:main.c        **** 			temp_data = data >> ((numbers-1)*4);
  55:main.c        **** 		else
  56:main.c        **** 			temp_data = data;
  57:main.c        **** 		temp_data = temp_data & 0x0000000F;
  58:main.c        **** 		numbers--;
  59:main.c        **** 
  60:main.c        **** 		// convert 4-bit value temp_data to char temp_char
  61:main.c        **** 		if(temp_data < 10)
 1328              	FE32:
 1330              		.section	.rodata.str1.4,"aMS",%progbits,1
 1331 07ec E1A02001 		.align	2
 1332              	.LC1:
 1333 07f0 E1A0E004 		.ascii	"Starting MEMTEST tests\015\012\000"
 1334              		.align	2
 1335              	.LC2:
 1336              		.ascii	"BASE ADDRESS:  \000"
 1337 07f4 E1A0310E 		.align	2
 1338              	.LC3:
 1339 07f8 E35E0001 		.ascii	"\015\012\000"
 1340              		.align	2
 1341 07fc E2433004 	.LC4:
 1342              		.ascii	"Number of Bytest:  \000"
 1343 0800 E1A0C000 		.align	2
 1344              	.LC5:
 1345              		.ascii	"memTestDataBus FAILED\015\012\000"
 1346 0804 81A0C330 		.align	2
 1347              	.LC6:
 1348 0808 E24E3001 		.ascii	"memTestDataBus Passed\015\012\000"
 1349              		.align	2
 1350 080c E20CC00F 	.LC7:
 1351              		.ascii	"memTestAddressBus FAILED \000"
 1352              		.align	2
 1353 0810 E203E0FF 	.LC8:
 1354              		.ascii	"memTestAddressBus Passed\015\012\000"
 1355 0814 E35C0009 		.align	2
 1356              	.LC9:
 1357 0818 E28C3030 		.ascii	"memTestDevice1 FAILED \000"
 1358              		.align	2
 1359              	.LC10:
 1360 081c 828C3037 		.ascii	"memTestDevice1 Passed\015\012\000"
 1361              		.align	2
 1362 0820 E35E0000 	.LC11:
 1363              		.ascii	"memTestDevice2 FAILED \000"
 1364 0824 E4C23001 		.align	2
 1365              	.LC12:
 1366 0828 1AFFFFF1 		.ascii	"memTestDevice2 Passed\015\012\000"
 1367              		.section	.rodata
 1368 082c E2443001 		.align	2
 1369              	.LC0:
 1370 0830 E20330FF 		.ascii	"\000\000"
 1371 0834 E0813003 		.space	8
 1372 0838 E5C3E001 		.text
 1373              		.align	2
 1374 083c E8BD8010 		.global	main
 1376              	main:
 1377              	.LFB33:
 1378              		.loc 4 65 0
 1379              		@ args = 0, pretend = 0, frame = 12
 1380 0000 53746172 		@ frame_needed = 0, uses_anonymous_args = 0
 1380      74696E67 
 1380      204D454D 
 1380      54455354 
 1380      20746573 
 1381 0019 000000   		stmfd	sp!, {r4, r5, r6, lr}
 1382              	.LCFI8:
 1383 001c 42415345 		.loc 4 67 0
 1383      20414444 
 1383      52455353 
 1383      3A202000 
 1384              		ldr	r3, .L272
 1385              		ldrh	r3, [r3, #0]
 1386 002c 0D0A00   		.loc 4 65 0
 1387 002f 00       		sub	sp, sp, #12
 1388              	.LCFI9:
 1389 0030 4E756D62 		.loc 4 67 0
 1389      6572206F 
 1389      66204279 
 1389      74657374 
 1389      3A202000 
 1390              		strh	r3, [sp, #2]	@ movhi
 1391              		.loc 4 72 0
 1392 0044 6D656D54 		ldr	r0, .L272+4
 1392      65737444 
 1392      61746142 
 1392      75732046 
 1392      41494C45 
 1393              		.loc 4 67 0
 1394              		mov	r3, #0	@ movhi
 1395 005c 6D656D54 		strh	r3, [sp, #4]	@ movhi
 1395      65737444 
 1395      61746142 
 1395      75732050 
 1395      61737365 
 1396              		strh	r3, [sp, #6]	@ movhi
 1397              		strh	r3, [sp, #8]	@ movhi
 1398 0074 6D656D54 		strh	r3, [sp, #10]	@ movhi
 1398      65737441 
 1398      64647265 
 1398      73734275 
 1398      73204641 
 1399 008e 0000     		.loc 4 74 0
 1400              		add	r5, sp, #2
 1401 0090 6D656D54 		.loc 4 72 0
 1401      65737441 
 1401      64647265 
 1401      73734275 
 1401      73205061 
 1402 00ab 00       		bl	uart0_printf
 1403              		.loc 4 73 0
 1404 00ac 6D656D54 		ldr	r0, .L272+8
 1404      65737444 
 1404      65766963 
 1404      65312046 
 1404      41494C45 
 1405 00c3 00       		bl	uart0_printf
 1406              		.loc 4 74 0
 1407 00c4 6D656D54 		mov	r1, r5
 1407      65737444 
 1407      65766963 
 1407      65312050 
 1407      61737365 
 1408              		mov	r2, #8
 1409              		mov	r0, #16777216
 1410 00dc 6D656D54 		bl	long_to_hex_string
 1410      65737444 
 1410      65766963 
 1410      65322046 
 1410      41494C45 
 1411 00f3 00       		.loc 4 75 0
 1412              		mov	r0, r5
 1413 00f4 6D656D54 		bl	uart0_printf
 1413      65737444 
 1413      65766963 
 1413      65322050 
 1413      61737365 
 1414              		ldr	r0, .L272+12
 1415              		bl	uart0_printf
 1416              		.loc 4 76 0
 1417 0000 0000     		ldr	r0, .L272+16
 1418 0002 00000000 		bl	uart0_printf
 1418      00000000 
 1419 000a 0000     		.loc 4 77 0
 1420              		mov	r1, r5
 1421              		mov	r2, #8
 1422              		mov	r0, #33554432
 1423              		bl	long_to_hex_string
 1424              		.loc 4 78 0
  62:main.c        **** 		numbers--;
  63:main.c        **** 
  64:main.c        **** 		// convert 4-bit value temp_data to char temp_char
  65:main.c        **** 		if(temp_data < 10)
 1425              	L157:
 1426              	.L269:
 1427              		.loc 4 94 0
 1428 0840 E92D4070 		ldr	r0, .L272+20
 1429              		bl	uart0_printf
  66:main.c        **** 		numbers--;
  67:main.c        **** 
 1430              	 4 95 0
 1431 0844 E59F31C4 		mov	r1, r5
 1432 0848 E1D330B0 		mov	r2, #8
 1433              		mov	r0, r4
 1434 084c E24DD00C 		bl	long_to_hex_string
 1435              		.loc 4 96 0
 1436              		mov	r0, r5
 1437 0850 E1CD30B2 		bl	uart0_printf
  68:main.c        **** rs-1)*4);
  69:main.c        **** 		else
  70:main.c        **** 			temp_data = data;
  71:main.c        **** 		temp_data = temp_data & 0x0000000F;
  72:main.c        **** 		numbers--;
 1438              	 .L272+12
 1439 0854 E59F01B8 		bl	uart0_printf
 1440              		.loc 4 104 0
 1441 0858 E3A03000 		mov	r0, #16777216
 1442 085c E1CD30B4 		mov	r1, #33554432
 1443 0860 E1CD30B6 		bl	memTestDevice1
 1444 0864 E1CD30B8 		.loc 4 105 0
 1445 0868 E1CD30BA 		subs	r4, r0, #0
  73:main.c        **** bers-1)*4);
  74:main.c        **** 		else
 1446              	
 1447 086c E28D5002 		beq	.L257
 1448              	.L270:
 1449 0870 EBFFFFFE 		.loc 4 107 0
 1450              		ldr	r0, .L272+24
 1451 0874 E59F019C 		bl	uart0_printf
 1452 0878 EBFFFFFE 		.loc 4 108 0
 1453              		mov	r1, r5
 1454 087c E1A01005 		mov	r2, #8
 1455 0880 E3A02008 		mov	r0, r4
 1456 0884 E3A00401 		bl	long_to_hex_string
 1457 0888 EBFFFFFE 		.loc 4 109 0
  75:main.c        **** 		// isolate one 4-bit value
 1458              	
 1459 088c E1A00005 		bl	uart0_printf
 1460 0890 EBFFFFFE 		ldr	r0, .L272+12
 1461 0894 E59F0180 		bl	uart0_printf
 1462 0898 EBFFFFFE 		.loc 4 119 0
  76:main.c        **** 	numbers = 8;
 1463              		r0, #16777216
 1464 089c E59F017C 		mov	r1, #33554432
 1465 08a0 EBFFFFFE 		bl	memTestDevice2
  77:main.c        **** char temp_char = 0;
 1466              	oc 4 120 0
 1467 08a4 E1A01005 		subs	r4, r0, #0
 1468 08a8 E3A02008 	.LVL159:
 1469 08ac E3A00402 		beq	.L260
 1470 08b0 EBFFFFFE 	.L271:
  78:main.c        **** ##########################################################################
 1471              	 4 122 0
 1472 08b4 E1A00005 		ldr	r0, .L272+28
 1473 08b8 EBFFFFFE 		bl	uart0_printf
 1474 08bc E59F0158 		.loc 4 123 0
 1475 08c0 EBFFFFFE 		mov	r1, r5
 1476 08c4 E3A06001 		mov	r2, #8
 1477              		mov	r0, r4
 1478 08c8 EA00002A 		bl	long_to_hex_string
 1479              		.loc 4 124 0
 1480              		mov	r0, r5
  79:main.c        **** laces, max 8
  80:main.c        **** // ############################################################################################
  81:main.c        **** {
  82:main.c        **** 	unsigned char temp_char = 0;
  83:main.c        **** 	unsigned long temp_data = 0;
  84:main.c        **** 
  85:main.c        **** 	// fit into range
  86:main.c        **** 	if(numbers > 8)
  87:main.c        **** 		numbers = 8;
  88:main.c        **** 	if(numbers < 1)
  89:main.c        **** 		numbers = 1;
  90:main.c        **** 
  91:main.c        **** 	while(numbers > 0){
  92:main.c        **** 		// isolate one 4-bit value
  93:main.c        **** 		if(numbers > 1)
  94:main.c        **** 			temp_data = data >> ((numbers-1)*4);
 1481              	printf
 1482 08cc E59F0150 		.loc 4 79 0
 1483 08d0 EBFFFFFE 		add	r6, r6, #1
  95:main.c        **** s > 0){
 1484              	oc 4 124 0
 1485 08d4 E1A01005 		ldr	r0, .L272+12
 1486 08d8 E3A02008 		bl	uart0_printf
 1487 08dc E1A00004 		.loc 4 79 0
 1488 08e0 EBFFFFFE 		cmp	r6, #101
  96:main.c        ****  into range
 1489              	.L267
 1490 08e4 E1A00005 	.L250:
 1491 08e8 EBFFFFFE 		.loc 4 80 0
 1492 08ec E59F0128 		mov	r0, #16777216
 1493 08f0 EBFFFFFE 		bl	memTestDataBus
  97:main.c        **** #####################
  98:main.c        **** {
  99:main.c        **** 	unsigned char temp_char = 0;
 100:main.c        **** 	unsigned long temp_data = 0;
 101:main.c        **** 
 102:main.c        **** 	// fit into range
 103:main.c        **** 	if(numbers > 8)
 104:main.c        **** 		numbers = 8;
 1494              	 4 81 0
 1495 08f4 E3A00401 		cmp	r0, #0
 1496 08f8 E3A01402 		bne	.L268
 1497 08fc EBFFFFFE 		.loc 4 88 0
 105:main.c        **** char temp_char = 0;
 1498              		r0, .L272+32
 1499 0900 E2504000 		bl	uart0_printf
 1500              		.loc 4 91 0
 1501 0904 0A00002D 		mov	r0, #16777216
 1502              		mov	r1, #33554432
 106:main.c        **** ##########################################################################
 107:main.c        **** {
 1503              	emTestAddressBus
 1504 0908 E59F0118 		.loc 4 92 0
 1505 090c EBFFFFFE 		subs	r4, r0, #0
 108:main.c        **** es, max 8
 1506              	L160:
 1507 0910 E1A01005 		bne	.L269
 1508 0914 E3A02008 		.loc 4 101 0
 1509 0918 E1A00004 		ldr	r0, .L272+36
 1510 091c EBFFFFFE 		bl	uart0_printf
 109:main.c        **** signed char *buffer, // buffer to store the string
 1511              	 4 104 0
 1512 0920 E1A00005 		mov	r0, #16777216
 1513 0924 EBFFFFFE 		mov	r1, #33554432
 1514 0928 E59F00EC 		bl	memTestDevice1
 1515 092c EBFFFFFE 		.loc 4 105 0
 110:main.c        **** ta,    // max 32 bit data word
 111:main.c        ****                            unsigned char *buffer, // buffer to store the string
 112:main.c        **** 						   unsigned char numbers) // number of places, max 8
 113:main.c        **** // ############################################################################################
 114:main.c        **** {
 115:main.c        **** 	unsigned char temp_char = 0;
 116:main.c        **** 	unsigned long temp_data = 0;
 117:main.c        **** 
 118:main.c        **** 	// fit into range
 119:main.c        **** 	if(numbers > 8)
 1516              		r4, r0, #0
 1517 0930 E3A00401 	.LVL161:
 1518 0934 E3A01402 		bne	.L270
 1519 0938 EBFFFFFE 	.L257:
 120:main.c        **** ###
 1520              	c 4 114 0
 1521 093c E2504000 		ldr	r0, .L272+40
 1522              		bl	uart0_printf
 1523 0940 0A000025 		.loc 4 119 0
 1524              		mov	r0, #16777216
 121:main.c        **** laces, max 8
 122:main.c        **** // ############################################################################################
 1525              	r1, #33554432
 1526 0944 E59F00E0 		bl	memTestDevice2
 1527 0948 EBFFFFFE 		.loc 4 120 0
 123:main.c        **** laces, max 8
 1528              	bs	r4, r0, #0
 1529 094c E1A01005 	.LVL162:
 1530 0950 E3A02008 		bne	.L271
 1531 0954 E1A00004 	.L260:
 1532 0958 EBFFFFFE 		.loc 4 129 0
 124:main.c        **** signed char *buffer, // buffer to store the string
 1533              	r0, .L272+44
 1534 095c E1A00005 		.loc 4 79 0
 1535 0960 EBFFFFFE 		add	r6, r6, #1
 1536              		.loc 4 129 0
 1537 0964 E2866001 		bl	uart0_printf
 1538              		.loc 4 79 0
 1539 0968 E59F00AC 		cmp	r6, #101
 1540 096c EBFFFFFE 		bne	.L250
 1541              	.L267:
 1542 0970 E3560065 		.loc 4 133 0
 1543 0974 0A00001D 		mov pc, #00010000
 1544              		mov	r0, #0
 1545              		b	.L253
 1546 0978 E3A00401 	.L268:
 1547 097c EBFFFFFE 		.loc 4 83 0
 1548              		ldr	r0, .L272+48
 1549 0980 E3500000 		bl	uart0_printf
 1550 0984 1A00001C 		mvn	r0, #0
 1551              	.L253:
 1552 0988 E59F00A0 		.loc 4 134 0
 1553 098c EBFFFFFE 		add	sp, sp, #12
 1554              		ldmfd	sp!, {r4, r5, r6, pc}
 1555 0990 E3A00401 	.L273:
 1556 0994 E3A01402 		.align	2
 1557 0998 EBFFFFFE 	.L272:
 1558              		.word	.LC0
 1559 099c E2504000 		.word	.LC1
 1560              		.word	.LC2
 1561 09a0 1AFFFFC9 		.word	.LC3
 1562              		.word	.LC4
 1563 09a4 E59F0088 		.word	.LC7
 1564 09a8 EBFFFFFE 		.word	.LC9
 1565              		.word	.LC11
 1566 09ac E3A00401 		.word	.LC6
 1567 09b0 E3A01402 		.word	.LC8
 1568 09b4 EBFFFFFE 		.word	.LC10
 1569              		.word	.LC12
 1570 09b8 E2504000 		.word	.LC5
 1571              	.LFE33:
 1573              		.align	2
 1574              		.global	io_enable_xint
 1576 09c4 EBFFFFFE 	io_enable_xint:
 1577              	.LFB23:
 1578 09c8 E3A00401 		.loc 1 444 0
 1579 09cc E3A01402 		@ args = 0, pretend = 0, frame = 0
 1580 09d0 EBFFFFFE 		@ frame_needed = 0, uses_anonymous_args = 0
 1581              		@ link register save eliminated.
 1582 09d4 E2504000 		@ lr needed for prologue
 1583              	.LBB6:
 1584 09d8 1AFFFFD9 	.LBB7:
 1585              		.loc 1 428 0
 125:main.c        **** ta,    // max 32 bit data word
 126:main.c        ****                            unsigned char *buffer, // buffer to store the string
 127:main.c        **** 						   unsigned char numbers) // number of places, max 8
 128:main.c        **** // ############################################################################################
 129:main.c        **** {
 1586              	.loc 1 437 0
 1587 09dc E59F0058 		bic	r3, r3, #192
 1588              	.LVL164:
 1589 09e0 E2866001 		 msr cpsr, r3
 1590              	.LBE9:
 1591 09e4 EBFFFFFE 	.LBE8:
 1592              		.loc 1 448 0
 1593 09e8 E3560065 		bx	lr
 1594 09ec 1AFFFFE1 	.LFE23:
 130:main.c        **** es, max 8
 131:main.c        **** // ############################################################################################
 132:main.c        **** {
 133:main.c        **** 	unsigned char temp_char = 0;
 1596              		.global	io_disable_xint
 1598 09f4 E3A00000 	io_disable_xint:
 1599 09f8 EA000002 	.LFB24:
 1600              		.loc 1 454 0
 1601              		@ args = 0, pretend = 0, frame = 0
 1602 09fc E59F003C 		@ frame_needed = 0, uses_anonymous_args = 0
 1603 0a00 EBFFFFFE 		@ link register save eliminated.
 1604 0a04 E3E00000 		@ lr needed for prologue
 1605              	.LBB14:
 134:main.c        **** ##########################################################################
 1606              	loc 1 428 0
 1607 0a08 E28DD00C 		 mrs r3, cpsr
 1608 0a0c E8BD8070 	.LVL165:
 1609              	.LBE15:
 1610              	.LBE14:
 1611              	.LBB16:
 1612 0a10 00000000 	.LBB17:
 1613 0a14 00000000 		.loc 1 437 0
 1614 0a18 0000001C 		orr	r3, r3, #192
 1615 0a1c 0000002C 	.LVL166:
 1616 0a20 00000030 		 msr cpsr, r3
 1617 0a24 00000074 	.LBE17:
 1618 0a28 000000AC 	.LBE16:
 1619 0a2c 000000DC 		.loc 1 458 0
 1620 0a30 0000005C 		bx	lr
 1621 0a34 00000090 	.LFE24:
 1623 0a3c 000000F4 		.section	.debug_frame,"",%progbits
 1624 0a40 00000044 	.Lframe0:
 1625              		.4byte	.LECIE0-.LSCIE0
 1626              	.LSCIE0:
 1627              		.4byte	0xffffffff
 1628              		.byte	0x1
 1629              		.ascii	"\000"
 1630              		.uleb128 0x1
 1631              		.sleb128 -4
 417:../lib/io_driver.c **** //		case 14:         asm volatile ("mcr p15,0,%0,c14,c14,0" : /* no outputs */ : "r" (_cp_val)); br
 418:../lib/io_driver.c **** //		case 15:         asm volatile ("mcr p15,0,%0,c15,c15,0" : /* no outputs */ : "r" (_cp_val)); br
 419:../lib/io_driver.c **** 		default:         break;
 420:../lib/io_driver.c **** 	}
 421:../lib/io_driver.c **** }
 422:../lib/io_driver.c **** // ******************************************************************************
 423:../lib/io_driver.c **** // read CMSR value
 424:../lib/io_driver.c ****    static inline unsigned long get_cmsr(void)
 425:../lib/io_driver.c **** // ******************************************************************************
 426:../lib/io_driver.c **** {
 427:../lib/io_driver.c **** 	unsigned long _cmsr;
 428:../lib/io_driver.c **** 	asm volatile (" mrs %0, cpsr" : "=r" (_cmsr) : /* no inputs */  );
 429:../lib/io_driver.c **** 	return _cmsr;
 430:../lib/io_driver.c **** }
 431:../lib/io_driver.c **** 
 432:../lib/io_driver.c **** // ******************************************************************************
 433:../lib/io_driver.c **** // write CMSR value
 434:../lib/io_driver.c ****    static inline void set_cmsr(unsigned long _cmsr)
 435:../lib/io_driver.c **** // ******************************************************************************
 436:../lib/io_driver.c **** {
 437:../lib/io_driver.c **** 	asm volatile (" msr cpsr, %0" : /* no outputs */ : "r" (_cmsr)  );
 438:../lib/io_driver.c **** }
 439:../lib/io_driver.c **** 
 440:../lib/io_driver.c **** // ******************************************************************************
 441:../lib/io_driver.c **** // Enable all external INTs
 442:../lib/io_driver.c ****    void io_enable_xint(void)
 443:../lib/io_driver.c **** // ******************************************************************************
 444:../lib/io_driver.c **** {
 1632              	eb128 0xd
 1633              		.uleb128 0x0
 1634              		.align	2
 1635              	.LECIE0:
 1636              	.LSFDE0:
 1637              		.4byte	.LEFDE0-.LASFDE0
 1638              	.LASFDE0:
 1639              		.4byte	.Lframe0
 1640 0a44 E10F3000 		.4byte	.LFB2
 1641              		.4byte	.LFE2-.LFB2
 1642              		.align	2
 1643              	.LEFDE0:
 1644              	.LSFDE2:
 1645              		.4byte	.LEFDE2-.LASFDE2
 1646              	.LASFDE2:
 1647 0a48 E3C330C0 		.4byte	.Lframe0
 1648              		.4byte	.LFB3
 1649 0a4c E129F003 		.4byte	.LFE3-.LFB3
 1650              		.align	2
 1651              	.LEFDE2:
 445:../lib/io_driver.c **** 	unsigned long _cmsr = get_cmsr();
 446:../lib/io_driver.c **** 	_cmsr = _cmsr & ~(1<<CMSR_FIQ) &~(1<<CMSR_IRQ);
 447:../lib/io_driver.c **** 	set_cmsr(_cmsr);
 448:../lib/io_driver.c **** }
 1652              	FDE4-.LASFDE4
 1653 0a50 E12FFF1E 	.LASFDE4:
 1654              		.4byte	.Lframe0
 1655              		.4byte	.LFB4
 1656              		.4byte	.LFE4-.LFB4
 1657              		.align	2
 1658              	.LEFDE4:
 1659              	.LSFDE6:
 1660              		.4byte	.LEFDE6-.LASFDE6
 449:../lib/io_driver.c **** 
 450:../lib/io_driver.c **** // ******************************************************************************
 451:../lib/io_driver.c **** // Disable all global IBTs
 452:../lib/io_driver.c ****    void io_disable_xint(void)
 453:../lib/io_driver.c **** // ******************************************************************************
 454:../lib/io_driver.c **** {
 1661              	
 1662              		.4byte	.Lframe0
 1663              		.4byte	.LFB5
 1664              		.4byte	.LFE5-.LFB5
 1665              		.align	2
 1666              	.LEFDE6:
 1667              	.LSFDE8:
 1668              		.4byte	.LEFDE8-.LASFDE8
 1669 0a54 E10F3000 	.LASFDE8:
 1670              		.4byte	.Lframe0
 1671              		.4byte	.LFB6
 1672              		.4byte	.LFE6-.LFB6
 1673              		.align	2
 1674              	.LEFDE8:
 1675              	.LSFDE10:
 1676 0a58 E38330C0 		.4byte	.LEFDE10-.LASFDE10
 1677              	.LASFDE10:
 1678 0a5c E129F003 		.4byte	.Lframe0
 1679              		.4byte	.LFB7
 1680              		.4byte	.LFE7-.LFB7
 455:../lib/io_driver.c **** 	unsigned long _cmsr = get_cmsr();
 456:../lib/io_driver.c **** 	_cmsr = _cmsr | (1<<CMSR_FIQ) | (1<<CMSR_IRQ);
 457:../lib/io_driver.c **** 	set_cmsr(_cmsr);
 458:../lib/io_driver.c **** }
 1681              	
 1682 0a60 E12FFF1E 	.LSFDE12:
 1683              		.4byte	.LEFDE12-.LASFDE12
 1684              	.LASFDE12:
 2030              		.4byte	0x0